
build/telosb/main.exe:     file format elf32-msp430


Disassembly of section .text:

00004000 <__init_stack>:
    4000:	31 40 00 39 	mov	#14592,	r1	;#0x3900

00004004 <__low_level_init>:
    4004:	15 42 20 01 	mov	&0x0120,r5	
    4008:	75 f3       	and.b	#-1,	r5	;r3 As==11
    400a:	35 d0 08 5a 	bis	#23048,	r5	;#0x5a08

0000400e <__do_copy_data>:
    400e:	3f 40 30 00 	mov	#48,	r15	;#0x0030
    4012:	0f 93       	tst	r15		
    4014:	07 24       	jz	$+16     	;abs 0x4024
    4016:	82 45 20 01 	mov	r5,	&0x0120	
    401a:	2f 83       	decd	r15		
    401c:	9f 4f ba 8b 00 11 	mov	-29766(r15),4352(r15);0x8bba(r15), 0x1100(r15)
    4022:	f9 23       	jnz	$-12     	;abs 0x4016

00004024 <__do_clear_bss>:
    4024:	3f 40 06 05 	mov	#1286,	r15	;#0x0506
    4028:	0f 93       	tst	r15		
    402a:	06 24       	jz	$+14     	;abs 0x4038
    402c:	82 45 20 01 	mov	r5,	&0x0120	
    4030:	1f 83       	dec	r15		
    4032:	cf 43 30 11 	mov.b	#0,	4400(r15);r3 As==00, 0x1130(r15)
    4036:	fa 23       	jnz	$-10     	;abs 0x402c

00004038 <main>:
    4038:	21 83       	decd	r1		
    403a:	b0 12 50 4b 	call	#0x4b50	
    403e:	47 4f       	mov.b	r15,	r7	
    4040:	3d 40 18 00 	mov	#24,	r13	;#0x0018
    4044:	3e 40 ff 00 	mov	#255,	r14	;#0x00ff
    4048:	3f 40 9a 11 	mov	#4506,	r15	;#0x119a
    404c:	b0 12 64 85 	call	#0x8564	
    4050:	f2 43 d3 15 	mov.b	#-1,	&0x15d3	;r3 As==11
    4054:	f2 43 29 16 	mov.b	#-1,	&0x1629	;r3 As==11
    4058:	b2 40 80 5a 20 01 	mov	#23168,	&0x0120	;#0x5a80
    405e:	a2 42 60 01 	mov	#4,	&0x0160	;r2 As==10
    4062:	82 43 2e 01 	mov	#0,	&0x012e	;r3 As==00
    4066:	a2 42 80 01 	mov	#4,	&0x0180	;r2 As==10
    406a:	82 43 1e 01 	mov	#0,	&0x011e	;r3 As==00
    406e:	b2 40 20 02 60 01 	mov	#544,	&0x0160	;#0x0220
    4074:	b2 40 20 01 80 01 	mov	#288,	&0x0180	;#0x0120
    407a:	f2 40 84 ff 57 00 	mov.b	#-124,	&0x0057	;#0xff84
    4080:	c2 43 58 00 	mov.b	#0,	&0x0058	;r3 As==00
    4084:	b2 40 00 40 82 01 	mov	#16384,	&0x0182	;#0x4000
    408a:	39 40 0c 00 	mov	#12,	r9	;#0x000c
    408e:	3a 40 00 08 	mov	#2048,	r10	;#0x0800
    4092:	0b 43       	clr	r11		
    4094:	36 40 00 04 	mov	#1024,	r6	;#0x0400
    4098:	08 4a       	mov	r10,	r8	
    409a:	08 db       	bis	r11,	r8	
    409c:	0f 48       	mov	r8,	r15	
    409e:	b0 12 50 48 	call	#0x4850	
    40a2:	0e 43       	clr	r14		
    40a4:	0c 4e       	mov	r14,	r12	
    40a6:	6d 43       	mov.b	#2,	r13	;r3 As==10
    40a8:	0e 3c       	jmp	$+30     	;abs 0x40c6
    40aa:	1f 42 90 01 	mov	&0x0190,r15	
    40ae:	3f 52       	add	#8,	r15	;r2 As==11
    40b0:	82 4f 92 01 	mov	r15,	&0x0192	
    40b4:	b2 f0 fe ff 82 01 	and	#-2,	&0x0182	;#0xfffe
    40ba:	92 b3 82 01 	bit	#1,	&0x0182	;r3 As==01
    40be:	fd 27       	jz	$-4      	;abs 0x40ba
    40c0:	0c 4e       	mov	r14,	r12	
    40c2:	1e 42 70 01 	mov	&0x0170,r14	
    40c6:	7d 53       	add.b	#-1,	r13	;r3 As==11
    40c8:	7d 93       	cmp.b	#-1,	r13	;r3 As==11
    40ca:	ef 23       	jnz	$-32     	;abs 0x40aa
    40cc:	0e 8c       	sub	r12,	r14	
    40ce:	06 9e       	cmp	r14,	r6	
    40d0:	01 28       	jnc	$+4      	;abs 0x40d4
    40d2:	0b 48       	mov	r8,	r11	
    40d4:	0a 11       	rra	r10		
    40d6:	39 53       	add	#-1,	r9	;r3 As==11
    40d8:	df 23       	jnz	$-64     	;abs 0x4098
    40da:	0f 4b       	mov	r11,	r15	
    40dc:	3f f0 e0 00 	and	#224,	r15	;#0x00e0
    40e0:	3f 90 e0 00 	cmp	#224,	r15	;#0x00e0
    40e4:	02 20       	jnz	$+6      	;abs 0x40ea
    40e6:	3b f0 e0 ff 	and	#-32,	r11	;#0xffe0
    40ea:	0f 4b       	mov	r11,	r15	
    40ec:	b0 12 50 48 	call	#0x4850	
    40f0:	5f 42 57 00 	mov.b	&0x0057,r15	
    40f4:	7f f0 07 00 	and.b	#7,	r15	;#0x0007
    40f8:	7f d0 80 ff 	bis.b	#-128,	r15	;#0xff80
    40fc:	c2 4f 57 00 	mov.b	r15,	&0x0057	
    4100:	e2 42 58 00 	mov.b	#4,	&0x0058	;r2 As==10
    4104:	f2 f0 fd ff 00 00 	and.b	#-3,	&0x0000	;#0xfffd
    410a:	82 43 70 01 	mov	#0,	&0x0170	;r3 As==00
    410e:	b2 40 02 02 60 01 	mov	#514,	&0x0160	;#0x0202
    4114:	82 43 90 01 	mov	#0,	&0x0190	;r3 As==00
    4118:	b2 40 02 01 80 01 	mov	#258,	&0x0180	;#0x0102
    411e:	1f 42 60 01 	mov	&0x0160,r15	
    4122:	3f f0 cf ff 	and	#-49,	r15	;#0xffcf
    4126:	3f d0 20 00 	bis	#32,	r15	;#0x0020
    412a:	82 4f 60 01 	mov	r15,	&0x0160	
    412e:	1f 42 80 01 	mov	&0x0180,r15	
    4132:	3f f0 cf ff 	and	#-49,	r15	;#0xffcf
    4136:	3f d0 20 00 	bis	#32,	r15	;#0x0020
    413a:	82 4f 80 01 	mov	r15,	&0x0180	
    413e:	c2 43 26 00 	mov.b	#0,	&0x0026	;r3 As==00
    4142:	c2 43 2e 00 	mov.b	#0,	&0x002e	;r3 As==00
    4146:	c2 43 1b 00 	mov.b	#0,	&0x001b	;r3 As==00
    414a:	c2 43 1f 00 	mov.b	#0,	&0x001f	;r3 As==00
    414e:	c2 43 33 00 	mov.b	#0,	&0x0033	;r3 As==00
    4152:	c2 43 37 00 	mov.b	#0,	&0x0037	;r3 As==00
    4156:	c2 43 21 00 	mov.b	#0,	&0x0021	;r3 As==00
    415a:	f2 40 e0 ff 22 00 	mov.b	#-32,	&0x0022	;#0xffe0
    4160:	f2 40 30 00 29 00 	mov.b	#48,	&0x0029	;#0x0030
    4166:	f2 40 7b 00 2a 00 	mov.b	#123,	&0x002a	;#0x007b
    416c:	c2 43 19 00 	mov.b	#0,	&0x0019	;r3 As==00
    4170:	f2 40 f1 ff 1a 00 	mov.b	#-15,	&0x001a	;#0xfff1
    4176:	f2 40 dd ff 1d 00 	mov.b	#-35,	&0x001d	;#0xffdd
    417c:	f2 40 fd ff 1e 00 	mov.b	#-3,	&0x001e	;#0xfffd
    4182:	f2 43 31 00 	mov.b	#-1,	&0x0031	;r3 As==11
    4186:	f2 43 32 00 	mov.b	#-1,	&0x0032	;r3 As==11
    418a:	c2 43 35 00 	mov.b	#0,	&0x0035	;r3 As==00
    418e:	f2 43 36 00 	mov.b	#-1,	&0x0036	;r3 As==11
    4192:	c2 43 25 00 	mov.b	#0,	&0x0025	;r3 As==00
    4196:	c2 43 2d 00 	mov.b	#0,	&0x002d	;r3 As==00
    419a:	1e 42 70 01 	mov	&0x0170,r14	
    419e:	3f 40 00 28 	mov	#10240,	r15	;#0x2800
    41a2:	1d 42 70 01 	mov	&0x0170,r13	
    41a6:	0d 8e       	sub	r14,	r13	
    41a8:	0f 9d       	cmp	r13,	r15	
    41aa:	fb 2f       	jc	$-8      	;abs 0x41a2
    41ac:	e2 d3 1a 00 	bis.b	#2,	&0x001a	;r3 As==10
    41b0:	f2 d2 1a 00 	bis.b	#8,	&0x001a	;r2 As==11
    41b4:	f2 d0 80 ff 1e 00 	bis.b	#-128,	&0x001e	;#0xff80
    41ba:	f2 d0 10 00 1e 00 	bis.b	#16,	&0x001e	;#0x0010
    41c0:	f2 d0 80 ff 1d 00 	bis.b	#-128,	&0x001d	;#0xff80
    41c6:	b0 12 8c 46 	call	#0x468c	
    41ca:	03 43       	nop			
    41cc:	03 43       	nop			
    41ce:	f2 f0 ef ff 1d 00 	and.b	#-17,	&0x001d	;#0xffef
    41d4:	b0 12 94 46 	call	#0x4694	
    41d8:	5f 43       	mov.b	#1,	r15	;r3 As==01
    41da:	b0 12 6e 48 	call	#0x486e	
    41de:	4f 43       	clr.b	r15		
    41e0:	b0 12 6e 48 	call	#0x486e	
    41e4:	5f 43       	mov.b	#1,	r15	;r3 As==01
    41e6:	b0 12 6e 48 	call	#0x486e	
    41ea:	5f 43       	mov.b	#1,	r15	;r3 As==01
    41ec:	b0 12 6e 48 	call	#0x486e	
    41f0:	5f 43       	mov.b	#1,	r15	;r3 As==01
    41f2:	b0 12 6e 48 	call	#0x486e	
    41f6:	4f 43       	clr.b	r15		
    41f8:	b0 12 6e 48 	call	#0x486e	
    41fc:	4f 43       	clr.b	r15		
    41fe:	b0 12 6e 48 	call	#0x486e	
    4202:	5f 43       	mov.b	#1,	r15	;r3 As==01
    4204:	b0 12 6e 48 	call	#0x486e	
    4208:	b0 12 8c 46 	call	#0x468c	
    420c:	b0 12 86 46 	call	#0x4686	
    4210:	b0 12 80 46 	call	#0x4680	
    4214:	f2 d0 10 00 32 00 	bis.b	#16,	&0x0032	;#0x0010
    421a:	f2 d0 20 00 32 00 	bis.b	#32,	&0x0032	;#0x0020
    4220:	f2 d0 40 00 32 00 	bis.b	#64,	&0x0032	;#0x0040
    4226:	f2 d0 10 00 31 00 	bis.b	#16,	&0x0031	;#0x0010
    422c:	f2 d0 20 00 31 00 	bis.b	#32,	&0x0031	;#0x0020
    4232:	f2 d0 40 00 31 00 	bis.b	#64,	&0x0031	;#0x0040
    4238:	b0 12 3e 80 	call	#0x803e	
    423c:	4b 4f       	mov.b	r15,	r11	
    423e:	4f 93       	tst.b	r15		
    4240:	fb 23       	jnz	$-8      	;abs 0x4238
    4242:	f2 43 be 11 	mov.b	#-1,	&0x11be	;r3 As==11
    4246:	b2 43 80 11 	mov	#-1,	&0x1180	;r3 As==11
    424a:	c2 4f 82 11 	mov.b	r15,	&0x1182	
    424e:	b2 43 84 11 	mov	#-1,	&0x1184	;r3 As==11
    4252:	c2 4f 86 11 	mov.b	r15,	&0x1186	
    4256:	b2 43 88 11 	mov	#-1,	&0x1188	;r3 As==11
    425a:	c2 4f 8a 11 	mov.b	r15,	&0x118a	
    425e:	b2 43 8c 11 	mov	#-1,	&0x118c	;r3 As==11
    4262:	c2 4f 8e 11 	mov.b	r15,	&0x118e	
    4266:	b0 12 04 46 	call	#0x4604	
    426a:	c2 4f 69 15 	mov.b	r15,	&0x1569	
    426e:	b2 40 98 15 76 11 	mov	#5528,	&0x1176	;#0x1598
    4274:	f2 f0 ef ff 22 00 	and.b	#-17,	&0x0022	;#0xffef
    427a:	b0 12 60 47 	call	#0x4760	
    427e:	f2 f0 fd ff 1e 00 	and.b	#-3,	&0x001e	;#0xfffd
    4284:	b0 12 d2 45 	call	#0x45d2	
    4288:	b2 40 00 40 88 01 	mov	#16384,	&0x0188	;#0x4000
    428e:	f2 43 dd 15 	mov.b	#-1,	&0x15dd	;r3 As==11
    4292:	b0 12 60 47 	call	#0x4760	
    4296:	f2 d0 40 00 1e 00 	bis.b	#64,	&0x001e	;#0x0040
    429c:	f2 d0 20 00 1e 00 	bis.b	#32,	&0x001e	;#0x0020
    42a2:	b0 12 1c 57 	call	#0x571c	
    42a6:	82 4f 26 12 	mov	r15,	&0x1226	
    42aa:	b0 12 3c 49 	call	#0x493c	
    42ae:	82 4c 5e 15 	mov	r12,	&0x155e	
    42b2:	82 4d 60 15 	mov	r13,	&0x1560	
    42b6:	82 4e 62 15 	mov	r14,	&0x1562	
    42ba:	82 4f 64 15 	mov	r15,	&0x1564	
    42be:	d2 42 2a 11 04 12 	mov.b	&0x112a,&0x1204	
    42c4:	c2 4b 05 12 	mov.b	r11,	&0x1205	
    42c8:	f2 40 1f 00 48 15 	mov.b	#31,	&0x1548	;#0x001f
    42ce:	f2 40 12 00 67 15 	mov.b	#18,	&0x1567	;#0x0012
    42d4:	b0 12 3c 49 	call	#0x493c	
    42d8:	82 4c 5e 15 	mov	r12,	&0x155e	
    42dc:	82 4d 60 15 	mov	r13,	&0x1560	
    42e0:	82 4e 62 15 	mov	r14,	&0x1562	
    42e4:	82 4f 64 15 	mov	r15,	&0x1564	
    42e8:	3e 40 5e 15 	mov	#5470,	r14	;#0x155e
    42ec:	0d 4e       	mov	r14,	r13	
    42ee:	3d 50 07 00 	add	#7,	r13	;#0x0007
    42f2:	6f 4e       	mov.b	@r14,	r15	
    42f4:	ee 4d 00 00 	mov.b	@r13,	0(r14)	;0x0000(r14)
    42f8:	cd 4f 00 00 	mov.b	r15,	0(r13)	;0x0000(r13)
    42fc:	1e 53       	inc	r14		
    42fe:	3d 53       	add	#-1,	r13	;r3 As==11
    4300:	3e 90 62 15 	cmp	#5474,	r14	;#0x1562
    4304:	f6 23       	jnz	$-18     	;abs 0x42f2
    4306:	d2 43 b8 11 	mov.b	#1,	&0x11b8	;r3 As==01
    430a:	d2 43 24 16 	mov.b	#1,	&0x1624	;r3 As==01
    430e:	d2 43 07 12 	mov.b	#1,	&0x1207	;r3 As==01
    4312:	d2 43 58 15 	mov.b	#1,	&0x1558	;r3 As==01
    4316:	c2 43 4a 15 	mov.b	#0,	&0x154a	;r3 As==00
    431a:	c2 43 4b 15 	mov.b	#0,	&0x154b	;r3 As==00
    431e:	c2 43 4c 15 	mov.b	#0,	&0x154c	;r3 As==00
    4322:	c2 43 4d 15 	mov.b	#0,	&0x154d	;r3 As==00
    4326:	c2 43 4e 15 	mov.b	#0,	&0x154e	;r3 As==00
    432a:	1f 42 00 11 	mov	&0x1100,r15	
    432e:	1f 53       	inc	r15		
    4330:	82 4f 0e 12 	mov	r15,	&0x120e	
    4334:	82 43 10 12 	mov	#0,	&0x1210	;r3 As==00
    4338:	b0 12 fc 45 	call	#0x45fc	
    433c:	b2 40 00 40 86 01 	mov	#16384,	&0x0186	;#0x4000
    4342:	c2 43 2e 12 	mov.b	#0,	&0x122e	;r3 As==00
    4346:	c2 43 30 12 	mov.b	#0,	&0x1230	;r3 As==00
    434a:	f2 40 0a 00 42 15 	mov.b	#10,	&0x1542	;#0x000a
    4350:	c2 43 1a 12 	mov.b	#0,	&0x121a	;r3 As==00
    4354:	c2 43 21 12 	mov.b	#0,	&0x1221	;r3 As==00
    4358:	c2 43 d4 15 	mov.b	#0,	&0x15d4	;r3 As==00
    435c:	82 43 2c 16 	mov	#0,	&0x162c	;r3 As==00
    4360:	c2 43 25 16 	mov.b	#0,	&0x1625	;r3 As==00
    4364:	c2 43 5c 12 	mov.b	#0,	&0x125c	;r3 As==00
    4368:	b0 12 42 47 	call	#0x4742	
    436c:	c2 43 49 12 	mov.b	#0,	&0x1249	;r3 As==00
    4370:	c2 43 48 12 	mov.b	#0,	&0x1248	;r3 As==00
    4374:	f2 43 20 12 	mov.b	#-1,	&0x1220	;r3 As==11
    4378:	b0 12 b4 70 	call	#0x70b4	
    437c:	b0 12 3e 80 	call	#0x803e	
    4380:	4f 93       	tst.b	r15		
    4382:	fc 23       	jnz	$-6      	;abs 0x437c
    4384:	4f 47       	mov.b	r7,	r15	
    4386:	b0 12 64 4b 	call	#0x4b64	
    438a:	32 d2       	eint			
    438c:	b0 12 50 4b 	call	#0x4b50	
    4390:	4e 4f       	mov.b	r15,	r14	
    4392:	f2 90 0a 00 42 15 	cmp.b	#10,	&0x1542	;#0x000a
    4398:	06 24       	jz	$+14     	;abs 0x43a6
    439a:	e2 92 fd 11 	cmp.b	#4,	&0x11fd	;r2 As==10
    439e:	03 24       	jz	$+8      	;abs 0x43a6
    43a0:	b0 12 64 4b 	call	#0x4b64	
    43a4:	06 3c       	jmp	$+14     	;abs 0x43b2
    43a6:	4f 4e       	mov.b	r14,	r15	
    43a8:	b0 12 64 4b 	call	#0x4b64	
    43ac:	6f 43       	mov.b	#2,	r15	;r3 As==10
    43ae:	b0 12 7a 4c 	call	#0x4c7a	
    43b2:	b0 12 34 5e 	call	#0x5e34	
    43b6:	4f 43       	clr.b	r15		
    43b8:	7e 40 07 00 	mov.b	#7,	r14	;#0x0007
    43bc:	01 3c       	jmp	$+4      	;abs 0x43c0
    43be:	5f 53       	inc.b	r15		
    43c0:	4e 9f       	cmp.b	r15,	r14	
    43c2:	fd 2f       	jc	$-4      	;abs 0x43be
    43c4:	c2 4f 60 12 	mov.b	r15,	&0x1260	
    43c8:	4f 4f       	mov.b	r15,	r15	
    43ca:	cf 43 2e 16 	mov.b	#0,	5678(r15);r3 As==00, 0x162e(r15)
    43ce:	3d 40 47 01 	mov	#327,	r13	;#0x0147
    43d2:	0e 43       	clr	r14		
    43d4:	7f 40 07 00 	mov.b	#7,	r15	;#0x0007
    43d8:	b0 12 f2 51 	call	#0x51f2	
    43dc:	6a 42       	mov.b	#4,	r10	;r2 As==10
    43de:	b0 12 50 4b 	call	#0x4b50	
    43e2:	49 4f       	mov.b	r15,	r9	
    43e4:	7a 3c       	jmp	$+246    	;abs 0x44da
    43e6:	c2 93 0f 11 	tst.b	&0x110f	
    43ea:	6b 24       	jz	$+216    	;abs 0x44c2
    43ec:	1d 42 62 01 	mov	&0x0162,r13	
    43f0:	3d f0 10 00 	and	#16,	r13	;#0x0010
    43f4:	0c 20       	jnz	$+26     	;abs 0x440e
    43f6:	1e 42 64 01 	mov	&0x0164,r14	
    43fa:	3e f0 10 00 	and	#16,	r14	;#0x0010
    43fe:	0e 9d       	cmp	r13,	r14	
    4400:	06 20       	jnz	$+14     	;abs 0x440e
    4402:	1f 42 66 01 	mov	&0x0166,r15	
    4406:	3f f0 10 00 	and	#16,	r15	;#0x0010
    440a:	0f 9e       	cmp	r14,	r15	
    440c:	07 24       	jz	$+16     	;abs 0x441c
    440e:	1f 42 60 01 	mov	&0x0160,r15	
    4412:	3f f0 00 03 	and	#768,	r15	;#0x0300
    4416:	3f 90 00 02 	cmp	#512,	r15	;#0x0200
    441a:	31 24       	jz	$+100    	;abs 0x447e
    441c:	5e 42 04 00 	mov.b	&0x0004,r14	
    4420:	3e f0 c0 00 	and	#192,	r14	;#0x00c0
    4424:	05 24       	jz	$+12     	;abs 0x4430
    4426:	5e 42 71 00 	mov.b	&0x0071,r14	
    442a:	3e f0 20 00 	and	#32,	r14	;#0x0020
    442e:	27 20       	jnz	$+80     	;abs 0x447e
    4430:	5e 42 05 00 	mov.b	&0x0005,r14	
    4434:	3e f0 30 00 	and	#48,	r14	;#0x0030
    4438:	05 24       	jz	$+12     	;abs 0x4444
    443a:	5e 42 79 00 	mov.b	&0x0079,r14	
    443e:	3e f0 20 00 	and	#32,	r14	;#0x0020
    4442:	1d 20       	jnz	$+60     	;abs 0x447e
    4444:	5e 42 70 00 	mov.b	&0x0070,r14	
    4448:	1e f3       	and	#1,	r14	;r3 As==01
    444a:	16 24       	jz	$+46     	;abs 0x4478
    444c:	5e 42 71 00 	mov.b	&0x0071,r14	
    4450:	3e f0 20 00 	and	#32,	r14	;#0x0020
    4454:	11 24       	jz	$+36     	;abs 0x4478
    4456:	5e 42 72 00 	mov.b	&0x0072,r14	
    445a:	3e f0 20 00 	and	#32,	r14	;#0x0020
    445e:	0c 24       	jz	$+26     	;abs 0x4478
    4460:	5e 42 70 00 	mov.b	&0x0070,r14	
    4464:	2e f2       	and	#4,	r14	;r2 As==10
    4466:	08 24       	jz	$+18     	;abs 0x4478
    4468:	5e 42 70 00 	mov.b	&0x0070,r14	
    446c:	3e f0 20 00 	and	#32,	r14	;#0x0020
    4470:	06 20       	jnz	$+14     	;abs 0x447e
    4472:	7e 50 05 00 	add.b	#5,	r14	;#0x0005
    4476:	04 3c       	jmp	$+10     	;abs 0x4480
    4478:	7e 40 05 00 	mov.b	#5,	r14	;#0x0005
    447c:	01 3c       	jmp	$+4      	;abs 0x4480
    447e:	6e 43       	mov.b	#2,	r14	;r3 As==10
    4480:	b2 b0 10 00 a0 01 	bit	#16,	&0x01a0	;#0x0010
    4486:	18 24       	jz	$+50     	;abs 0x44b8
    4488:	1d 42 a2 01 	mov	&0x01a2,r13	
    448c:	3d f0 10 00 	and	#16,	r13	;#0x0010
    4490:	05 24       	jz	$+12     	;abs 0x449c
    4492:	1e 42 a2 01 	mov	&0x01a2,r14	
    4496:	3e f2       	and	#8,	r14	;r2 As==11
    4498:	12 24       	jz	$+38     	;abs 0x44be
    449a:	0d 3c       	jmp	$+28     	;abs 0x44b6
    449c:	1f 42 a2 01 	mov	&0x01a2,r15	
    44a0:	3f f0 00 04 	and	#1024,	r15	;#0x0400
    44a4:	0f 9d       	cmp	r13,	r15	
    44a6:	08 24       	jz	$+18     	;abs 0x44b8
    44a8:	1f 42 60 01 	mov	&0x0160,r15	
    44ac:	3f f0 00 03 	and	#768,	r15	;#0x0300
    44b0:	3f 90 00 02 	cmp	#512,	r15	;#0x0200
    44b4:	01 20       	jnz	$+4      	;abs 0x44b8
    44b6:	6e 43       	mov.b	#2,	r14	;r3 As==10
    44b8:	4a 9e       	cmp.b	r14,	r10	
    44ba:	01 2c       	jc	$+4      	;abs 0x44be
    44bc:	6e 42       	mov.b	#4,	r14	;r2 As==10
    44be:	c2 4e 36 11 	mov.b	r14,	&0x1136	
    44c2:	5e 42 36 11 	mov.b	&0x1136,r14	
    44c6:	0e 5e       	rla	r14		
    44c8:	1e 4e 18 84 	mov	-31720(r14),r14	;0x8418(r14)
    44cc:	3e d2       	bis	#8,	r14	;r2 As==11
    44ce:	81 4e 00 00 	mov	r14,	0(r1)	;0x0000(r1)
    44d2:	22 d1       	bis	@r1,	r2	
    44d4:	32 c2       	dint			
    44d6:	03 43       	nop			
    44d8:	03 43       	nop			
    44da:	b0 12 a0 47 	call	#0x47a0	
    44de:	4b 4f       	mov.b	r15,	r11	
    44e0:	7f 93       	cmp.b	#-1,	r15	;r3 As==11
    44e2:	81 27       	jz	$-252    	;abs 0x43e6
    44e4:	4f 49       	mov.b	r9,	r15	
    44e6:	b0 12 64 4b 	call	#0x4b64	
    44ea:	4f 4b       	mov.b	r11,	r15	
    44ec:	b0 12 86 72 	call	#0x7286	
    44f0:	76 3f       	jmp	$-274    	;abs 0x43de

000044f2 <__stop_progExec__>:
    44f2:	32 d0 f0 00 	bis	#240,	r2	;#0x00f0
    44f6:	fd 3f       	jmp	$-4      	;abs 0x44f2

000044f8 <__ctors_end>:
    44f8:	30 40 b8 8b 	br	#0x8bb8	

000044fc <Msp430TimerP__0__Event__fired>:
    44fc:	5f 93       	cmp.b	#1,	r15	;r3 As==01
    44fe:	0e 24       	jz	$+30     	;abs 0x451c
    4500:	4f 93       	tst.b	r15		
    4502:	03 24       	jz	$+8      	;abs 0x450a
    4504:	6f 93       	cmp.b	#2,	r15	;r3 As==10
    4506:	19 20       	jnz	$+52     	;abs 0x453a
    4508:	11 3c       	jmp	$+36     	;abs 0x452c
    450a:	1e 42 62 01 	mov	&0x0162,r14	
    450e:	8e 10       	swpb	r14		
    4510:	5e f3       	and.b	#1,	r14	;r3 As==01
    4512:	4e 9f       	cmp.b	r15,	r14	
    4514:	12 24       	jz	$+38     	;abs 0x453a
    4516:	1f 42 72 01 	mov	&0x0172,r15	
    451a:	30 41       	ret			
    451c:	1f 42 64 01 	mov	&0x0164,r15	
    4520:	8f 10       	swpb	r15		
    4522:	5f f3       	and.b	#1,	r15	;r3 As==01
    4524:	0a 24       	jz	$+22     	;abs 0x453a
    4526:	1f 42 74 01 	mov	&0x0174,r15	
    452a:	30 41       	ret			
    452c:	1f 42 66 01 	mov	&0x0166,r15	
    4530:	8f 10       	swpb	r15		
    4532:	5f f3       	and.b	#1,	r15	;r3 As==01
    4534:	02 24       	jz	$+6      	;abs 0x453a
    4536:	1f 42 76 01 	mov	&0x0176,r15	
    453a:	30 41       	ret			

0000453c <Msp430AlarmC__0__Msp430TimerControl__disableEvents>:
    453c:	b2 f0 ef ff 82 01 	and	#-17,	&0x0182	;#0xffef
    4542:	30 41       	ret			

00004544 <__nesc_ntoh_leuint16>:
    4544:	5e 4f 01 00 	mov.b	1(r15),	r14	;0x0001(r15)
    4548:	8e 10       	swpb	r14		
    454a:	6f 4f       	mov.b	@r15,	r15	
    454c:	0f de       	bis	r14,	r15	
    454e:	30 41       	ret			

00004550 <__nesc_hton_uint32>:
    4550:	0b 12       	push	r11		
    4552:	0a 12       	push	r10		
    4554:	0a 4d       	mov	r13,	r10	
    4556:	0b 4e       	mov	r14,	r11	
    4558:	cf 4d 03 00 	mov.b	r13,	3(r15)	;0x0003(r15)
    455c:	0c 4d       	mov	r13,	r12	
    455e:	0d 4e       	mov	r14,	r13	
    4560:	8c 10       	swpb	r12		
    4562:	8d 10       	swpb	r13		
    4564:	4c ed       	xor.b	r13,	r12	
    4566:	0c ed       	xor	r13,	r12	
    4568:	7d f3       	and.b	#-1,	r13	;r3 As==11
    456a:	cf 4c 02 00 	mov.b	r12,	2(r15)	;0x0002(r15)
    456e:	cf 4e 01 00 	mov.b	r14,	1(r15)	;0x0001(r15)
    4572:	8e 10       	swpb	r14		
    4574:	cf 4e 00 00 	mov.b	r14,	0(r15)	;0x0000(r15)
    4578:	0e 4a       	mov	r10,	r14	
    457a:	0f 4b       	mov	r11,	r15	
    457c:	3a 41       	pop	r10		
    457e:	3b 41       	pop	r11		
    4580:	30 41       	ret			

00004582 <__nesc_ntoh_uint32>:
    4582:	0b 12       	push	r11		
    4584:	0a 12       	push	r10		
    4586:	09 12       	push	r9		
    4588:	09 4f       	mov	r15,	r9	
    458a:	5c 4f 03 00 	mov.b	3(r15),	r12	;0x0003(r15)
    458e:	0d 43       	clr	r13		
    4590:	6f 49       	mov.b	@r9,	r15	
    4592:	0e 4d       	mov	r13,	r14	
    4594:	3f f0 ff 00 	and	#255,	r15	;#0x00ff
    4598:	8f 10       	swpb	r15		
    459a:	0e dc       	bis	r12,	r14	
    459c:	0f dd       	bis	r13,	r15	
    459e:	5d 49 01 00 	mov.b	1(r9),	r13	;0x0001(r9)
    45a2:	0c 43       	clr	r12		
    45a4:	0e dc       	bis	r12,	r14	
    45a6:	0f dd       	bis	r13,	r15	
    45a8:	5a 49 02 00 	mov.b	2(r9),	r10	;0x0002(r9)
    45ac:	0b 4c       	mov	r12,	r11	
    45ae:	4b ea       	xor.b	r10,	r11	
    45b0:	0b ea       	xor	r10,	r11	
    45b2:	8b 10       	swpb	r11		
    45b4:	7a f3       	and.b	#-1,	r10	;r3 As==11
    45b6:	8a 10       	swpb	r10		
    45b8:	0e da       	bis	r10,	r14	
    45ba:	0f db       	bis	r11,	r15	
    45bc:	39 41       	pop	r9		
    45be:	3a 41       	pop	r10		
    45c0:	3b 41       	pop	r11		
    45c2:	30 41       	ret			

000045c4 <CC2420TransmitP__SFD__get>:
    45c4:	5e 42 1c 00 	mov.b	&0x001c,r14	
    45c8:	6e f3       	and.b	#2,	r14	;r3 As==10
    45ca:	5f 43       	mov.b	#1,	r15	;r3 As==01
    45cc:	01 20       	jnz	$+4      	;abs 0x45d0
    45ce:	4f 4e       	mov.b	r14,	r15	
    45d0:	30 41       	ret			

000045d2 <Msp430AlarmC__2__Msp430TimerControl__disableEvents>:
    45d2:	b2 f0 ef ff 88 01 	and	#-17,	&0x0188	;#0xffef
    45d8:	30 41       	ret			

000045da <GpioCaptureC__0__Msp430Capture__clearOverflow>:
    45da:	b2 f0 fd ff 84 01 	and	#-3,	&0x0184	;#0xfffd
    45e0:	30 41       	ret			

000045e2 <GpioCaptureC__0__Msp430TimerControl__clearPendingInterrupt>:
    45e2:	b2 f0 fe ff 84 01 	and	#-2,	&0x0184	;#0xfffe
    45e8:	30 41       	ret			

000045ea <HplMsp430Usart0P__Usart__resetUsart>:
    45ea:	4f 93       	tst.b	r15		
    45ec:	03 24       	jz	$+8      	;abs 0x45f4
    45ee:	d2 43 70 00 	mov.b	#1,	&0x0070	;r3 As==01
    45f2:	30 41       	ret			
    45f4:	f2 f0 fe ff 70 00 	and.b	#-2,	&0x0070	;#0xfffe
    45fa:	30 41       	ret			

000045fc <Msp430AlarmC__1__Msp430TimerControl__disableEvents>:
    45fc:	b2 f0 ef ff 86 01 	and	#-17,	&0x0186	;#0xffef
    4602:	30 41       	ret			

00004604 <RandomMlcgC__Random__rand16>:
    4604:	0b 12       	push	r11		
    4606:	0a 12       	push	r10		
    4608:	09 12       	push	r9		
    460a:	08 12       	push	r8		
    460c:	07 12       	push	r7		
    460e:	06 12       	push	r6		
    4610:	05 12       	push	r5		
    4612:	04 12       	push	r4		
    4614:	18 42 0e 12 	mov	&0x120e,r8	
    4618:	19 42 10 12 	mov	&0x1210,r9	
    461c:	34 40 4e 83 	mov	#-31922,r4	;#0x834e
    4620:	05 43       	clr	r5		
    4622:	b0 12 8c 8a 	call	#0x8a8c	
    4626:	0a 4c       	mov	r12,	r10	
    4628:	0b 4d       	mov	r13,	r11	
    462a:	0c 4e       	mov	r14,	r12	
    462c:	0d 4f       	mov	r15,	r13	
    462e:	0e 4a       	mov	r10,	r14	
    4630:	0f 4b       	mov	r11,	r15	
    4632:	12 c3       	clrc			
    4634:	0f 10       	rrc	r15		
    4636:	0e 10       	rrc	r14		
    4638:	0e 5c       	add	r12,	r14	
    463a:	0f 6d       	addc	r13,	r15	
    463c:	0f 93       	tst	r15		
    463e:	05 34       	jge	$+12     	;abs 0x464a
    4640:	3e f3       	and	#-1,	r14	;r3 As==11
    4642:	3f f0 ff 7f 	and	#32767,	r15	;#0x7fff
    4646:	1e 53       	inc	r14		
    4648:	0f 63       	adc	r15		
    464a:	82 4e 0e 12 	mov	r14,	&0x120e	
    464e:	82 4f 10 12 	mov	r15,	&0x1210	
    4652:	0f 4e       	mov	r14,	r15	
    4654:	34 41       	pop	r4		
    4656:	35 41       	pop	r5		
    4658:	36 41       	pop	r6		
    465a:	37 41       	pop	r7		
    465c:	38 41       	pop	r8		
    465e:	39 41       	pop	r9		
    4660:	3a 41       	pop	r10		
    4662:	3b 41       	pop	r11		
    4664:	30 41       	ret			

00004666 <CC2420SpiP__SpiResource__isOwner>:
    4666:	c2 93 27 11 	tst.b	&0x1127	
    466a:	08 20       	jnz	$+18     	;abs 0x467c
    466c:	5f 43       	mov.b	#1,	r15	;r3 As==01
    466e:	f2 90 03 00 5e 11 	cmp.b	#3,	&0x115e	;#0x0003
    4674:	04 24       	jz	$+10     	;abs 0x467e
    4676:	5f 42 27 11 	mov.b	&0x1127,r15	
    467a:	30 41       	ret			
    467c:	4f 43       	clr.b	r15		
    467e:	30 41       	ret			

00004680 <TOSH_SET_SIMO0_PIN>:
    4680:	e2 d3 19 00 	bis.b	#2,	&0x0019	;r3 As==10
    4684:	30 41       	ret			

00004686 <TOSH_SET_UCLK0_PIN>:
    4686:	f2 d2 19 00 	bis.b	#8,	&0x0019	;r2 As==11
    468a:	30 41       	ret			

0000468c <TOSH_SET_FLASH_CS_PIN>:
    468c:	f2 d0 10 00 1d 00 	bis.b	#16,	&0x001d	;#0x0010
    4692:	30 41       	ret			

00004694 <TOSH_CLR_UCLK0_PIN>:
    4694:	f2 f0 f7 ff 19 00 	and.b	#-9,	&0x0019	;#0xfff7
    469a:	30 41       	ret			

0000469c <GpioCaptureC__0__Msp430TimerControl__disableEvents>:
    469c:	b2 f0 ef ff 84 01 	and	#-17,	&0x0184	;#0xffef
    46a2:	30 41       	ret			

000046a4 <Msp430InterruptC__1__HplInterrupt__clear>:
    46a4:	f2 f0 fe ff 23 00 	and.b	#-2,	&0x0023	;#0xfffe
    46aa:	30 41       	ret			

000046ac <PacketLinkP__PacketAcknowledgements__requestAck>:
    46ac:	0b 12       	push	r11		
    46ae:	0b 4f       	mov	r15,	r11	
    46b0:	1f 53       	inc	r15		
    46b2:	b0 12 44 45 	call	#0x4544	
    46b6:	3f d0 20 00 	bis	#32,	r15	;#0x0020
    46ba:	cb 4f 01 00 	mov.b	r15,	1(r11)	;0x0001(r11)
    46be:	8f 10       	swpb	r15		
    46c0:	cb 4f 02 00 	mov.b	r15,	2(r11)	;0x0002(r11)
    46c4:	4f 43       	clr.b	r15		
    46c6:	3b 41       	pop	r11		
    46c8:	30 41       	ret			

000046ca <__nesc_ntoh_uint16>:
    46ca:	5e 4f 01 00 	mov.b	1(r15),	r14	;0x0001(r15)
    46ce:	6f 4f       	mov.b	@r15,	r15	
    46d0:	8f 10       	swpb	r15		
    46d2:	0f de       	bis	r14,	r15	
    46d4:	30 41       	ret			

000046d6 <CC2420SpiP__SpiByte__write>:
    46d6:	c2 4f 77 00 	mov.b	r15,	&0x0077	
    46da:	5f 42 02 00 	mov.b	&0x0002,r15	
    46de:	3f f0 40 00 	and	#64,	r15	;#0x0040
    46e2:	fb 27       	jz	$-8      	;abs 0x46da
    46e4:	f2 f0 bf ff 02 00 	and.b	#-65,	&0x0002	;#0xffbf
    46ea:	5f 42 76 00 	mov.b	&0x0076,r15	
    46ee:	30 41       	ret			

000046f0 <Msp430InterruptC__0__HplInterrupt__clear>:
    46f0:	f2 f0 ef ff 23 00 	and.b	#-17,	&0x0023	;#0xffef
    46f6:	30 41       	ret			

000046f8 <HplMsp430Usart1P__URXD__selectIOFunc>:
    46f8:	f2 f0 7f 00 1b 00 	and.b	#127,	&0x001b	;#0x007f
    46fe:	30 41       	ret			

00004700 <HplMsp430Usart1P__UTXD__selectIOFunc>:
    4700:	f2 f0 bf ff 1b 00 	and.b	#-65,	&0x001b	;#0xffbf
    4706:	30 41       	ret			

00004708 <HplMsp430Usart1P__Usart__disableUart>:
    4708:	f2 f0 cf ff 05 00 	and.b	#-49,	&0x0005	;#0xffcf
    470e:	b0 12 00 47 	call	#0x4700	
    4712:	b0 12 f8 46 	call	#0x46f8	
    4716:	30 41       	ret			

00004718 <HplMsp430Usart1P__Usart__disableIntr>:
    4718:	f2 f0 cf ff 01 00 	and.b	#-49,	&0x0001	;#0xffcf
    471e:	30 41       	ret			

00004720 <HplMsp430Usart1P__Usart__resetUsart>:
    4720:	4f 93       	tst.b	r15		
    4722:	03 24       	jz	$+8      	;abs 0x472a
    4724:	d2 43 78 00 	mov.b	#1,	&0x0078	;r3 As==01
    4728:	30 41       	ret			
    472a:	f2 f0 fe ff 78 00 	and.b	#-2,	&0x0078	;#0xfffe
    4730:	30 41       	ret			

00004732 <HplMsp430Usart1P__UTXD__selectModuleFunc>:
    4732:	f2 d0 40 00 1b 00 	bis.b	#64,	&0x001b	;#0x0040
    4738:	30 41       	ret			

0000473a <HplMsp430Usart1P__URXD__selectModuleFunc>:
    473a:	f2 d0 80 ff 1b 00 	bis.b	#-128,	&0x001b	;#0xff80
    4740:	30 41       	ret			

00004742 <SerialP__rxInit>:
    4742:	c2 43 6d 15 	mov.b	#0,	&0x156d	;r3 As==00
    4746:	c2 43 6c 15 	mov.b	#0,	&0x156c	;r3 As==00
    474a:	e2 42 fd 11 	mov.b	#4,	&0x11fd	;r2 As==10
    474e:	c2 43 44 15 	mov.b	#0,	&0x1544	;r3 As==00
    4752:	c2 43 72 15 	mov.b	#0,	&0x1572	;r3 As==00
    4756:	c2 43 02 12 	mov.b	#0,	&0x1202	;r3 As==00
    475a:	82 43 5a 12 	mov	#0,	&0x125a	;r3 As==00
    475e:	30 41       	ret			

00004760 <Msp430GpioC__4__GeneralIO__makeOutput>:
    4760:	e2 d2 1e 00 	bis.b	#4,	&0x001e	;r2 As==10
    4764:	30 41       	ret			

00004766 <OneWireMasterP__BusyWait__wait>:
    4766:	1e 42 70 01 	mov	&0x0170,r14	
    476a:	3f 90 01 80 	cmp	#-32767,r15	;#0x8001
    476e:	0a 28       	jnc	$+22     	;abs 0x4784
    4770:	3f 50 00 80 	add	#-32768,r15	;#0x8000
    4774:	1d 42 70 01 	mov	&0x0170,r13	
    4778:	0d 8e       	sub	r14,	r13	
    477a:	0f 9d       	cmp	r13,	r15	
    477c:	fb 2f       	jc	$-8      	;abs 0x4774
    477e:	0e 5f       	add	r15,	r14	
    4780:	3f 40 00 80 	mov	#-32768,r15	;#0x8000
    4784:	1d 42 70 01 	mov	&0x0170,r13	
    4788:	0d 8e       	sub	r14,	r13	
    478a:	0f 9d       	cmp	r13,	r15	
    478c:	fb 2f       	jc	$-8      	;abs 0x4784
    478e:	30 41       	ret			

00004790 <OneWireMasterP__Pin__makeInput>:
    4790:	f2 f0 ef ff 2a 00 	and.b	#-17,	&0x002a	;#0xffef
    4796:	30 41       	ret			

00004798 <OneWireMasterP__Pin__makeOutput>:
    4798:	f2 d0 10 00 2a 00 	bis.b	#16,	&0x002a	;#0x0010
    479e:	30 41       	ret			

000047a0 <SchedulerBasicP__popTask>:
    47a0:	5f 42 d3 15 	mov.b	&0x15d3,r15	
    47a4:	7f 93       	cmp.b	#-1,	r15	;r3 As==11
    47a6:	0d 24       	jz	$+28     	;abs 0x47c2
    47a8:	4d 4f       	mov.b	r15,	r13	
    47aa:	0e 4d       	mov	r13,	r14	
    47ac:	3e 50 9a 11 	add	#4506,	r14	;#0x119a
    47b0:	6c 4e       	mov.b	@r14,	r12	
    47b2:	c2 4c d3 15 	mov.b	r12,	&0x15d3	
    47b6:	7c 93       	cmp.b	#-1,	r12	;r3 As==11
    47b8:	02 20       	jnz	$+6      	;abs 0x47be
    47ba:	c2 4c 29 16 	mov.b	r12,	&0x1629	
    47be:	fd 43 9a 11 	mov.b	#-1,	4506(r13);r3 As==11, 0x119a(r13)
    47c2:	30 41       	ret			

000047c4 <Msp430UartP__0__Usart__clrTxIntr>:
    47c4:	f2 f0 df ff 03 00 	and.b	#-33,	&0x0003	;#0xffdf
    47ca:	30 41       	ret			

000047cc <Msp430TimerP__1__Timer__get>:
    47cc:	1f 42 90 01 	mov	&0x0190,r15	
    47d0:	01 3c       	jmp	$+4      	;abs 0x47d4
    47d2:	0f 4e       	mov	r14,	r15	
    47d4:	1e 42 90 01 	mov	&0x0190,r14	
    47d8:	0f 9e       	cmp	r14,	r15	
    47da:	fb 23       	jnz	$-8      	;abs 0x47d2
    47dc:	30 41       	ret			

000047de <GpioCaptureC__0__enableCapture>:
    47de:	0b 12       	push	r11		
    47e0:	4b 4f       	mov.b	r15,	r11	
    47e2:	b0 12 9c 46 	call	#0x469c	
    47e6:	e2 d3 1f 00 	bis.b	#2,	&0x001f	;r3 As==10
    47ea:	b0 12 e2 45 	call	#0x45e2	
    47ee:	b0 12 da 45 	call	#0x45da	
    47f2:	4f 4b       	mov.b	r11,	r15	
    47f4:	4f 5f       	rla.b	r15		
    47f6:	4f 5f       	rla.b	r15		
    47f8:	4f 5f       	rla.b	r15		
    47fa:	4f 5f       	rla.b	r15		
    47fc:	4f 5f       	rla.b	r15		
    47fe:	4f 5f       	rla.b	r15		
    4800:	4f 11       	rra.b	r15		
    4802:	4f 11       	rra.b	r15		
    4804:	4f 11       	rra.b	r15		
    4806:	4f 11       	rra.b	r15		
    4808:	4f 11       	rra.b	r15		
    480a:	4f 11       	rra.b	r15		
    480c:	4f 4f       	mov.b	r15,	r15	
    480e:	8f 10       	swpb	r15		
    4810:	0f 5f       	rla	r15		
    4812:	0f 5f       	rla	r15		
    4814:	0f 5f       	rla	r15		
    4816:	0f 5f       	rla	r15		
    4818:	0f 5f       	rla	r15		
    481a:	0f 5f       	rla	r15		
    481c:	3e 40 84 01 	mov	#388,	r14	;#0x0184
    4820:	3f d0 00 01 	bis	#256,	r15	;#0x0100
    4824:	8e 4f 00 00 	mov	r15,	0(r14)	;0x0000(r14)
    4828:	be d0 10 00 00 00 	bis	#16,	0(r14)	;#0x0010, 0x0000(r14)
    482e:	4f 43       	clr.b	r15		
    4830:	3b 41       	pop	r11		
    4832:	30 41       	ret			

00004834 <CC2420TransmitP__CaptureSFD__captureRisingEdge>:
    4834:	5f 43       	mov.b	#1,	r15	;r3 As==01
    4836:	b0 12 de 47 	call	#0x47de	
    483a:	30 41       	ret			

0000483c <CC2420PacketP__PacketTimeStamp32khz__clear>:
    483c:	cf 43 2f 00 	mov.b	#0,	47(r15)	;r3 As==00, 0x002f(r15)
    4840:	0d 43       	clr	r13		
    4842:	3e 40 00 80 	mov	#-32768,r14	;#0x8000
    4846:	3f 50 30 00 	add	#48,	r15	;#0x0030
    484a:	b0 12 50 45 	call	#0x4550	
    484e:	30 41       	ret			

00004850 <Msp430ClockP__set_dco_calib>:
    4850:	0e 4f       	mov	r15,	r14	
    4852:	8e 10       	swpb	r14		
    4854:	8e 11       	sxt	r14		
    4856:	7e f0 07 00 	and.b	#7,	r14	;#0x0007
    485a:	5d 42 57 00 	mov.b	&0x0057,r13	
    485e:	7d f0 f8 ff 	and.b	#-8,	r13	;#0xfff8
    4862:	4e dd       	bis.b	r13,	r14	
    4864:	c2 4e 57 00 	mov.b	r14,	&0x0057	
    4868:	c2 4f 56 00 	mov.b	r15,	&0x0056	
    486c:	30 41       	ret			

0000486e <MotePlatformC__TOSH_FLASH_M25P_DP_bit>:
    486e:	4f 93       	tst.b	r15		
    4870:	03 24       	jz	$+8      	;abs 0x4878
    4872:	b0 12 80 46 	call	#0x4680	
    4876:	03 3c       	jmp	$+8      	;abs 0x487e
    4878:	f2 f0 fd ff 19 00 	and.b	#-3,	&0x0019	;#0xfffd
    487e:	b0 12 86 46 	call	#0x4686	
    4882:	b0 12 94 46 	call	#0x4694	
    4886:	30 41       	ret			

00004888 <CC2420ReceiveP__reset_state>:
    4888:	f2 40 80 ff 92 11 	mov.b	#-128,	&0x1192	;#0xff80
    488e:	c2 43 fc 11 	mov.b	#0,	&0x11fc	;r3 As==00
    4892:	c2 43 d8 15 	mov.b	#0,	&0x15d8	;r3 As==00
    4896:	c2 43 d2 15 	mov.b	#0,	&0x15d2	;r3 As==00
    489a:	c2 43 b9 11 	mov.b	#0,	&0x11b9	;r3 As==00
    489e:	30 41       	ret			

000048a0 <CC2420PacketP__getNetwork>:
    48a0:	0b 12       	push	r11		
    48a2:	0b 4f       	mov	r15,	r11	
    48a4:	1f 53       	inc	r15		
    48a6:	b0 12 44 45 	call	#0x4544	
    48aa:	0e 4f       	mov	r15,	r14	
    48ac:	8e 10       	swpb	r14		
    48ae:	3e f0 ff 00 	and	#255,	r14	;#0x00ff
    48b2:	12 c3       	clrc			
    48b4:	0e 10       	rrc	r14		
    48b6:	0e 11       	rra	r14		
    48b8:	0d 4e       	mov	r14,	r13	
    48ba:	3d f0 03 00 	and	#3,	r13	;#0x0003
    48be:	0d 5d       	rla	r13		
    48c0:	1f 4d 24 84 	mov	-31708(r13),r15	;0x8424(r13)
    48c4:	0e 11       	rra	r14		
    48c6:	0e 11       	rra	r14		
    48c8:	0e 11       	rra	r14		
    48ca:	0e 11       	rra	r14		
    48cc:	0e 5e       	rla	r14		
    48ce:	1e 4e 24 84 	mov	-31708(r14),r14	;0x8424(r14)
    48d2:	0e 5f       	add	r15,	r14	
    48d4:	3e 50 06 00 	add	#6,	r14	;#0x0006
    48d8:	0f 4b       	mov	r11,	r15	
    48da:	0f 5e       	add	r14,	r15	
    48dc:	3b 41       	pop	r11		
    48de:	30 41       	ret			

000048e0 <ApplicationP__already_assigned>:
    48e0:	0b 12       	push	r11		
    48e2:	4e 43       	clr.b	r14		
    48e4:	7b 40 07 00 	mov.b	#7,	r11	;#0x0007
    48e8:	0b 3c       	jmp	$+24     	;abs 0x4900
    48ea:	4c 4e       	mov.b	r14,	r12	
    48ec:	5c 53       	inc.b	r12		
    48ee:	4d 4e       	mov.b	r14,	r13	
    48f0:	cd 9f 2e 16 	cmp.b	r15,	5678(r13);0x162e(r13)
    48f4:	04 20       	jnz	$+10     	;abs 0x48fe
    48f6:	c2 4e 60 12 	mov.b	r14,	&0x1260	
    48fa:	4f 4c       	mov.b	r12,	r15	
    48fc:	06 3c       	jmp	$+14     	;abs 0x490a
    48fe:	4e 4c       	mov.b	r12,	r14	
    4900:	4b 9e       	cmp.b	r14,	r11	
    4902:	f3 2f       	jc	$-24     	;abs 0x48ea
    4904:	c2 4e 60 12 	mov.b	r14,	&0x1260	
    4908:	4f 43       	clr.b	r15		
    490a:	3b 41       	pop	r11		
    490c:	30 41       	ret			

0000490e <CC2420ActiveMessageP__AMPacket__setDestination>:
    490e:	3f 50 06 00 	add	#6,	r15	;#0x0006
    4912:	cf 4e 00 00 	mov.b	r14,	0(r15)	;0x0000(r15)
    4916:	8e 10       	swpb	r14		
    4918:	cf 4e 01 00 	mov.b	r14,	1(r15)	;0x0001(r15)
    491c:	30 41       	ret			

0000491e <HplMsp430Usart1P__Usart__disableSpi>:
    491e:	f2 f0 ef ff 05 00 	and.b	#-17,	&0x0005	;#0xffef
    4924:	3f 40 33 00 	mov	#51,	r15	;#0x0033
    4928:	ff f0 fd ff 00 00 	and.b	#-3,	0(r15)	;#0xfffd, 0x0000(r15)
    492e:	ff f0 fb ff 00 00 	and.b	#-5,	0(r15)	;#0xfffb, 0x0000(r15)
    4934:	ff f0 f7 ff 00 00 	and.b	#-9,	0(r15)	;#0xfff7, 0x0000(r15)
    493a:	30 41       	ret			

0000493c <CC2420ControlP__LocalIeeeEui64__getId>:
    493c:	0b 12       	push	r11		
    493e:	0a 12       	push	r10		
    4940:	09 12       	push	r9		
    4942:	08 12       	push	r8		
    4944:	07 12       	push	r7		
    4946:	c2 93 68 11 	tst.b	&0x1168	
    494a:	b3 20       	jnz	$+360    	;abs 0x4ab2
    494c:	c2 93 6a 11 	tst.b	&0x116a	
    4950:	83 20       	jnz	$+264    	;abs 0x4a58
    4952:	b0 12 90 47 	call	#0x4790	
    4956:	f2 f0 ef ff 29 00 	and.b	#-17,	&0x0029	;#0xffef
    495c:	b0 12 98 47 	call	#0x4798	
    4960:	3f 40 30 02 	mov	#560,	r15	;#0x0230
    4964:	b0 12 66 47 	call	#0x4766	
    4968:	b0 12 90 47 	call	#0x4790	
    496c:	3f 40 3c 00 	mov	#60,	r15	;#0x003c
    4970:	b0 12 66 47 	call	#0x4766	
    4974:	0b 43       	clr	r11		
    4976:	f2 b0 10 00 28 00 	bit.b	#16,	&0x0028	;#0x0010
    497c:	09 24       	jz	$+20     	;abs 0x4990
    497e:	3b 50 05 00 	add	#5,	r11	;#0x0005
    4982:	3f 40 05 00 	mov	#5,	r15	;#0x0005
    4986:	b0 12 66 47 	call	#0x4766	
    498a:	3b 90 f0 00 	cmp	#240,	r11	;#0x00f0
    498e:	f3 23       	jnz	$-24     	;abs 0x4976
    4990:	3f 40 a4 01 	mov	#420,	r15	;#0x01a4
    4994:	b0 12 66 47 	call	#0x4766	
    4998:	3b 90 f0 00 	cmp	#240,	r11	;#0x00f0
    499c:	60 2c       	jc	$+194    	;abs 0x4a5e
    499e:	7a 42       	mov.b	#8,	r10	;r2 As==11
    49a0:	7b 40 33 00 	mov.b	#51,	r11	;#0x0033
    49a4:	1b b3       	bit	#1,	r11	;r3 As==01
    49a6:	0b 24       	jz	$+24     	;abs 0x49be
    49a8:	b0 12 98 47 	call	#0x4798	
    49ac:	3f 40 05 00 	mov	#5,	r15	;#0x0005
    49b0:	b0 12 66 47 	call	#0x4766	
    49b4:	b0 12 90 47 	call	#0x4790	
    49b8:	3f 40 41 00 	mov	#65,	r15	;#0x0041
    49bc:	0a 3c       	jmp	$+22     	;abs 0x49d2
    49be:	b0 12 98 47 	call	#0x4798	
    49c2:	3f 40 3c 00 	mov	#60,	r15	;#0x003c
    49c6:	b0 12 66 47 	call	#0x4766	
    49ca:	b0 12 90 47 	call	#0x4790	
    49ce:	3f 40 05 00 	mov	#5,	r15	;#0x0005
    49d2:	b0 12 66 47 	call	#0x4766	
    49d6:	7a 53       	add.b	#-1,	r10	;r3 As==11
    49d8:	03 24       	jz	$+8      	;abs 0x49e0
    49da:	12 c3       	clrc			
    49dc:	4b 10       	rrc.b	r11		
    49de:	e2 3f       	jmp	$-58     	;abs 0x49a4
    49e0:	3b 40 50 15 	mov	#5456,	r11	;#0x1550
    49e4:	0a 4b       	mov	r11,	r10	
    49e6:	78 42       	mov.b	#8,	r8	;r2 As==11
    49e8:	49 43       	clr.b	r9		
    49ea:	12 c3       	clrc			
    49ec:	49 10       	rrc.b	r9		
    49ee:	b0 12 98 47 	call	#0x4798	
    49f2:	3f 40 05 00 	mov	#5,	r15	;#0x0005
    49f6:	b0 12 66 47 	call	#0x4766	
    49fa:	b0 12 90 47 	call	#0x4790	
    49fe:	3f 40 05 00 	mov	#5,	r15	;#0x0005
    4a02:	b0 12 66 47 	call	#0x4766	
    4a06:	57 42 28 00 	mov.b	&0x0028,r7	
    4a0a:	3f 40 41 00 	mov	#65,	r15	;#0x0041
    4a0e:	b0 12 66 47 	call	#0x4766	
    4a12:	77 b0 10 00 	bit.b	#16,	r7	;#0x0010
    4a16:	02 24       	jz	$+6      	;abs 0x4a1c
    4a18:	79 d0 80 ff 	bis.b	#-128,	r9	;#0xff80
    4a1c:	78 53       	add.b	#-1,	r8	;r3 As==11
    4a1e:	e5 23       	jnz	$-52     	;abs 0x49ea
    4a20:	ca 49 00 00 	mov.b	r9,	0(r10)	;0x0000(r10)
    4a24:	1a 53       	inc	r10		
    4a26:	3a 90 58 15 	cmp	#5464,	r10	;#0x1558
    4a2a:	dd 23       	jnz	$-68     	;abs 0x49e6
    4a2c:	4f 48       	mov.b	r8,	r15	
    4a2e:	6f eb       	xor.b	@r11,	r15	
    4a30:	7e 42       	mov.b	#8,	r14	;r2 As==11
    4a32:	0d 4f       	mov	r15,	r13	
    4a34:	1d f3       	and	#1,	r13	;r3 As==01
    4a36:	12 c3       	clrc			
    4a38:	4f 10       	rrc.b	r15		
    4a3a:	0d 93       	tst	r13		
    4a3c:	02 24       	jz	$+6      	;abs 0x4a42
    4a3e:	7f e0 8c ff 	xor.b	#-116,	r15	;#0xff8c
    4a42:	7e 53       	add.b	#-1,	r14	;r3 As==11
    4a44:	f6 23       	jnz	$-18     	;abs 0x4a32
    4a46:	1b 53       	inc	r11		
    4a48:	3b 90 58 15 	cmp	#5464,	r11	;#0x1558
    4a4c:	f0 23       	jnz	$-30     	;abs 0x4a2e
    4a4e:	4f 93       	tst.b	r15		
    4a50:	08 20       	jnz	$+18     	;abs 0x4a62
    4a52:	d2 43 6a 11 	mov.b	#1,	&0x116a	;r3 As==01
    4a56:	07 3c       	jmp	$+16     	;abs 0x4a66
    4a58:	5f 42 68 11 	mov.b	&0x1168,r15	
    4a5c:	04 3c       	jmp	$+10     	;abs 0x4a66
    4a5e:	6f 42       	mov.b	#4,	r15	;r2 As==10
    4a60:	02 3c       	jmp	$+6      	;abs 0x4a66
    4a62:	7f 40 06 00 	mov.b	#6,	r15	;#0x0006
    4a66:	c2 93 6a 11 	tst.b	&0x116a	
    4a6a:	07 24       	jz	$+16     	;abs 0x4a7a
    4a6c:	5d 42 51 15 	mov.b	&0x1551,r13	
    4a70:	5c 42 52 15 	mov.b	&0x1552,r12	
    4a74:	5e 42 53 15 	mov.b	&0x1553,r14	
    4a78:	04 3c       	jmp	$+10     	;abs 0x4a82
    4a7a:	5e 42 6a 11 	mov.b	&0x116a,r14	
    4a7e:	4c 4e       	mov.b	r14,	r12	
    4a80:	4d 4e       	mov.b	r14,	r13	
    4a82:	4f 93       	tst.b	r15		
    4a84:	16 20       	jnz	$+46     	;abs 0x4ab2
    4a86:	c2 4f 60 11 	mov.b	r15,	&0x1160	
    4a8a:	f2 40 12 00 61 11 	mov.b	#18,	&0x1161	;#0x0012
    4a90:	f2 40 6d 00 62 11 	mov.b	#109,	&0x1162	;#0x006d
    4a96:	f2 40 45 00 63 11 	mov.b	#69,	&0x1163	;#0x0045
    4a9c:	f2 40 50 00 64 11 	mov.b	#80,	&0x1164	;#0x0050
    4aa2:	c2 4e 65 11 	mov.b	r14,	&0x1165	
    4aa6:	c2 4c 66 11 	mov.b	r12,	&0x1166	
    4aaa:	c2 4d 67 11 	mov.b	r13,	&0x1167	
    4aae:	d2 43 68 11 	mov.b	#1,	&0x1168	;r3 As==01
    4ab2:	1c 42 60 11 	mov	&0x1160,r12	
    4ab6:	1d 42 62 11 	mov	&0x1162,r13	
    4aba:	1e 42 64 11 	mov	&0x1164,r14	
    4abe:	1f 42 66 11 	mov	&0x1166,r15	
    4ac2:	37 41       	pop	r7		
    4ac4:	38 41       	pop	r8		
    4ac6:	39 41       	pop	r9		
    4ac8:	3a 41       	pop	r10		
    4aca:	3b 41       	pop	r11		
    4acc:	30 41       	ret			

00004ace <crcByte>:
    4ace:	0d 4f       	mov	r15,	r13	
    4ad0:	8d 10       	swpb	r13		
    4ad2:	4d 4d       	mov.b	r13,	r13	
    4ad4:	3f f0 ff 00 	and	#255,	r15	;#0x00ff
    4ad8:	8f 10       	swpb	r15		
    4ada:	0d df       	bis	r15,	r13	
    4adc:	4e 4e       	mov.b	r14,	r14	
    4ade:	0d ee       	xor	r14,	r13	
    4ae0:	4e 4d       	mov.b	r13,	r14	
    4ae2:	12 c3       	clrc			
    4ae4:	4e 10       	rrc.b	r14		
    4ae6:	4e 11       	rra.b	r14		
    4ae8:	4e 11       	rra.b	r14		
    4aea:	4e 11       	rra.b	r14		
    4aec:	4e 4e       	mov.b	r14,	r14	
    4aee:	0e ed       	xor	r13,	r14	
    4af0:	0f 4e       	mov	r14,	r15	
    4af2:	3f f0 ff 00 	and	#255,	r15	;#0x00ff
    4af6:	8f 10       	swpb	r15		
    4af8:	0f 5f       	rla	r15		
    4afa:	0f 5f       	rla	r15		
    4afc:	0f 5f       	rla	r15		
    4afe:	0f 5f       	rla	r15		
    4b00:	0f ee       	xor	r14,	r15	
    4b02:	0e 4f       	mov	r15,	r14	
    4b04:	3e f0 ff 00 	and	#255,	r14	;#0x00ff
    4b08:	0e 5e       	rla	r14		
    4b0a:	0e 5e       	rla	r14		
    4b0c:	0e 5e       	rla	r14		
    4b0e:	0e 5e       	rla	r14		
    4b10:	0e 5e       	rla	r14		
    4b12:	0f ee       	xor	r14,	r15	
    4b14:	30 41       	ret			

00004b16 <ArbiterP__1__ResourceConfigure__unconfigure.clone.166>:
    4b16:	5f 43       	mov.b	#1,	r15	;r3 As==01
    4b18:	b0 12 ea 45 	call	#0x45ea	
    4b1c:	f2 f0 bf ff 04 00 	and.b	#-65,	&0x0004	;#0xffbf
    4b22:	3f 40 1b 00 	mov	#27,	r15	;#0x001b
    4b26:	ff f0 fd ff 00 00 	and.b	#-3,	0(r15)	;#0xfffd, 0x0000(r15)
    4b2c:	ff f0 fb ff 00 00 	and.b	#-5,	0(r15)	;#0xfffb, 0x0000(r15)
    4b32:	ff f0 f7 ff 00 00 	and.b	#-9,	0(r15)	;#0xfff7, 0x0000(r15)
    4b38:	4f 43       	clr.b	r15		
    4b3a:	b0 12 ea 45 	call	#0x45ea	
    4b3e:	30 41       	ret			

00004b40 <ArbiterP__0__ResourceConfigure__unconfigure.clone.167>:
    4b40:	5f 43       	mov.b	#1,	r15	;r3 As==01
    4b42:	b0 12 20 47 	call	#0x4720	
    4b46:	b0 12 18 47 	call	#0x4718	
    4b4a:	b0 12 08 47 	call	#0x4708	
    4b4e:	30 41       	ret			

00004b50 <__nesc_atomic_start>:
    4b50:	0e 42       	mov	r2,	r14	
    4b52:	32 c2       	dint			
    4b54:	03 43       	nop			
    4b56:	03 43       	nop			
    4b58:	3e f2       	and	#8,	r14	;r2 As==11
    4b5a:	5f 43       	mov.b	#1,	r15	;r3 As==01
    4b5c:	0e 93       	tst	r14		
    4b5e:	01 20       	jnz	$+4      	;abs 0x4b62
    4b60:	4f 4e       	mov.b	r14,	r15	
    4b62:	30 41       	ret			

00004b64 <__nesc_atomic_end>:
    4b64:	4f 93       	tst.b	r15		
    4b66:	01 24       	jz	$+4      	;abs 0x4b6a
    4b68:	32 d2       	eint			
    4b6a:	30 41       	ret			

00004b6c <Msp430SpiNoDmaP__0__continueOp>:
    4b6c:	0b 12       	push	r11		
    4b6e:	b0 12 50 4b 	call	#0x4b50	
    4b72:	1e 42 18 12 	mov	&0x1218,r14	
    4b76:	0e 93       	tst	r14		
    4b78:	03 24       	jz	$+8      	;abs 0x4b80
    4b7a:	1e 52 d6 15 	add	&0x15d6,r14	
    4b7e:	6e 4e       	mov.b	@r14,	r14	
    4b80:	c2 4e 77 00 	mov.b	r14,	&0x0077	
    4b84:	5e 42 d6 15 	mov.b	&0x15d6,r14	
    4b88:	6e 53       	incd.b	r14		
    4b8a:	1d 42 da 15 	mov	&0x15da,r13	
    4b8e:	4c 4e       	mov.b	r14,	r12	
    4b90:	0d 9c       	cmp	r12,	r13	
    4b92:	1a 2c       	jc	$+54     	;abs 0x4bc8
    4b94:	4e 4d       	mov.b	r13,	r14	
    4b96:	18 3c       	jmp	$+50     	;abs 0x4bc8
    4b98:	5e 42 02 00 	mov.b	&0x0002,r14	
    4b9c:	3e f0 40 00 	and	#64,	r14	;#0x0040
    4ba0:	fb 27       	jz	$-8      	;abs 0x4b98
    4ba2:	5b 42 76 00 	mov.b	&0x0076,r11	
    4ba6:	1e 42 40 13 	mov	&0x1340,r14	
    4baa:	0e 93       	tst	r14		
    4bac:	03 24       	jz	$+8      	;abs 0x4bb4
    4bae:	0d 5e       	add	r14,	r13	
    4bb0:	cd 4b 00 00 	mov.b	r11,	0(r13)	;0x0000(r13)
    4bb4:	1d 42 18 12 	mov	&0x1218,r13	
    4bb8:	0d 93       	tst	r13		
    4bba:	03 24       	jz	$+8      	;abs 0x4bc2
    4bbc:	1d 52 d6 15 	add	&0x15d6,r13	
    4bc0:	6d 4d       	mov.b	@r13,	r13	
    4bc2:	c2 4d 77 00 	mov.b	r13,	&0x0077	
    4bc6:	01 3c       	jmp	$+4      	;abs 0x4bca
    4bc8:	4c 4e       	mov.b	r14,	r12	
    4bca:	1d 42 d6 15 	mov	&0x15d6,r13	
    4bce:	0e 4d       	mov	r13,	r14	
    4bd0:	1e 53       	inc	r14		
    4bd2:	82 4e d6 15 	mov	r14,	&0x15d6	
    4bd6:	0e 9c       	cmp	r12,	r14	
    4bd8:	df 2b       	jnc	$-64     	;abs 0x4b98
    4bda:	b0 12 64 4b 	call	#0x4b64	
    4bde:	3b 41       	pop	r11		
    4be0:	30 41       	ret			

00004be2 <CC2420SpiP__WorkingState__isIdle>:
    4be2:	0b 12       	push	r11		
    4be4:	b0 12 50 4b 	call	#0x4b50	
    4be8:	5b 43       	mov.b	#1,	r11	;r3 As==01
    4bea:	c2 93 4b 15 	tst.b	&0x154b	
    4bee:	01 24       	jz	$+4      	;abs 0x4bf2
    4bf0:	4b 43       	clr.b	r11		
    4bf2:	b0 12 64 4b 	call	#0x4b64	
    4bf6:	4f 4b       	mov.b	r11,	r15	
    4bf8:	3b 41       	pop	r11		
    4bfa:	30 41       	ret			

00004bfc <CC2420SpiP__Strobe__strobe>:
    4bfc:	0b 12       	push	r11		
    4bfe:	0a 12       	push	r10		
    4c00:	4a 4f       	mov.b	r15,	r10	
    4c02:	b0 12 50 4b 	call	#0x4b50	
    4c06:	4b 4f       	mov.b	r15,	r11	
    4c08:	b0 12 e2 4b 	call	#0x4be2	
    4c0c:	4f 93       	tst.b	r15		
    4c0e:	05 24       	jz	$+12     	;abs 0x4c1a
    4c10:	4f 4b       	mov.b	r11,	r15	
    4c12:	b0 12 64 4b 	call	#0x4b64	
    4c16:	4f 43       	clr.b	r15		
    4c18:	06 3c       	jmp	$+14     	;abs 0x4c26
    4c1a:	4f 4b       	mov.b	r11,	r15	
    4c1c:	b0 12 64 4b 	call	#0x4b64	
    4c20:	4f 4a       	mov.b	r10,	r15	
    4c22:	b0 12 d6 46 	call	#0x46d6	
    4c26:	3a 41       	pop	r10		
    4c28:	3b 41       	pop	r11		
    4c2a:	30 41       	ret			

00004c2c <CC2420TransmitP__SFLUSHTX__strobe>:
    4c2c:	7f 40 09 00 	mov.b	#9,	r15	;#0x0009
    4c30:	b0 12 fc 4b 	call	#0x4bfc	
    4c34:	30 41       	ret			

00004c36 <CC2420CsmaP__SplitControlState__isState>:
    4c36:	0b 12       	push	r11		
    4c38:	0a 12       	push	r10		
    4c3a:	4a 4f       	mov.b	r15,	r10	
    4c3c:	b0 12 50 4b 	call	#0x4b50	
    4c40:	5b 43       	mov.b	#1,	r11	;r3 As==01
    4c42:	c2 9a 4c 15 	cmp.b	r10,	&0x154c	
    4c46:	01 24       	jz	$+4      	;abs 0x4c4a
    4c48:	4b 43       	clr.b	r11		
    4c4a:	b0 12 64 4b 	call	#0x4b64	
    4c4e:	4f 4b       	mov.b	r11,	r15	
    4c50:	3a 41       	pop	r10		
    4c52:	3b 41       	pop	r11		
    4c54:	30 41       	ret			

00004c56 <CC2420ReceiveP__CC2420Config__getShortAddr>:
    4c56:	0b 12       	push	r11		
    4c58:	b0 12 50 4b 	call	#0x4b50	
    4c5c:	1b 42 26 12 	mov	&0x1226,r11	
    4c60:	b0 12 64 4b 	call	#0x4b64	
    4c64:	0f 4b       	mov	r11,	r15	
    4c66:	3b 41       	pop	r11		
    4c68:	30 41       	ret			

00004c6a <Msp430GpioC__4__GeneralIO__clr>:
    4c6a:	b0 12 50 4b 	call	#0x4b50	
    4c6e:	f2 f0 fb ff 1d 00 	and.b	#-5,	&0x001d	;#0xfffb
    4c74:	b0 12 64 4b 	call	#0x4b64	
    4c78:	30 41       	ret			

00004c7a <SchedulerBasicP__TaskBasic__postTask>:
    4c7a:	0b 12       	push	r11		
    4c7c:	4b 4f       	mov.b	r15,	r11	
    4c7e:	b0 12 50 4b 	call	#0x4b50	
    4c82:	4e 4b       	mov.b	r11,	r14	
    4c84:	fe 93 9a 11 	cmp.b	#-1,	4506(r14);r3 As==11, 0x119a(r14)
    4c88:	11 20       	jnz	$+36     	;abs 0x4cac
    4c8a:	c2 9b 29 16 	cmp.b	r11,	&0x1629	
    4c8e:	0e 24       	jz	$+30     	;abs 0x4cac
    4c90:	f2 93 d3 15 	cmp.b	#-1,	&0x15d3	;r3 As==11
    4c94:	03 20       	jnz	$+8      	;abs 0x4c9c
    4c96:	c2 4b d3 15 	mov.b	r11,	&0x15d3	
    4c9a:	04 3c       	jmp	$+10     	;abs 0x4ca4
    4c9c:	5e 42 29 16 	mov.b	&0x1629,r14	
    4ca0:	ce 4b 9a 11 	mov.b	r11,	4506(r14);0x119a(r14)
    4ca4:	c2 4b 29 16 	mov.b	r11,	&0x1629	
    4ca8:	4b 43       	clr.b	r11		
    4caa:	02 3c       	jmp	$+6      	;abs 0x4cb0
    4cac:	7b 40 05 00 	mov.b	#5,	r11	;#0x0005
    4cb0:	b0 12 64 4b 	call	#0x4b64	
    4cb4:	4f 4b       	mov.b	r11,	r15	
    4cb6:	3b 41       	pop	r11		
    4cb8:	30 41       	ret			

00004cba <CC2420SpiP__attemptRelease>:
    4cba:	c2 93 5c 11 	tst.b	&0x115c	
    4cbe:	39 20       	jnz	$+116    	;abs 0x4d32
    4cc0:	f2 93 24 11 	cmp.b	#-1,	&0x1124	;r3 As==11
    4cc4:	36 20       	jnz	$+110    	;abs 0x4d32
    4cc6:	b0 12 e2 4b 	call	#0x4be2	
    4cca:	4f 93       	tst.b	r15		
    4ccc:	32 24       	jz	$+102    	;abs 0x4d32
    4cce:	d2 43 68 15 	mov.b	#1,	&0x1568	;r3 As==01
    4cd2:	c2 93 99 11 	tst.b	&0x1199	
    4cd6:	02 24       	jz	$+6      	;abs 0x4cdc
    4cd8:	c2 43 68 15 	mov.b	#0,	&0x1568	;r3 As==00
    4cdc:	c2 93 68 15 	tst.b	&0x1568	
    4ce0:	2a 24       	jz	$+86     	;abs 0x4d36
    4ce2:	f2 90 03 00 5e 11 	cmp.b	#3,	&0x115e	;#0x0003
    4ce8:	29 20       	jnz	$+84     	;abs 0x4d3c
    4cea:	c2 93 27 11 	tst.b	&0x1127	
    4cee:	28 20       	jnz	$+82     	;abs 0x4d40
    4cf0:	5f 42 25 11 	mov.b	&0x1125,r15	
    4cf4:	7f 93       	cmp.b	#-1,	r15	;r3 As==11
    4cf6:	16 24       	jz	$+46     	;abs 0x4d24
    4cf8:	4e 4f       	mov.b	r15,	r14	
    4cfa:	5d 4e dd 15 	mov.b	5597(r14),r13	;0x15dd(r14)
    4cfe:	c2 4d 25 11 	mov.b	r13,	&0x1125	
    4d02:	7d 93       	cmp.b	#-1,	r13	;r3 As==11
    4d04:	02 20       	jnz	$+6      	;abs 0x4d0a
    4d06:	c2 4d 26 11 	mov.b	r13,	&0x1126	
    4d0a:	fe 43 dd 15 	mov.b	#-1,	5597(r14);r3 As==11, 0x15dd(r14)
    4d0e:	c2 4f 06 12 	mov.b	r15,	&0x1206	
    4d12:	f2 43 27 11 	mov.b	#-1,	&0x1127	;r3 As==11
    4d16:	d2 43 5e 11 	mov.b	#1,	&0x115e	;r3 As==01
    4d1a:	7f 40 13 00 	mov.b	#19,	r15	;#0x0013
    4d1e:	b0 12 7a 4c 	call	#0x4c7a	
    4d22:	04 3c       	jmp	$+10     	;abs 0x4d2c
    4d24:	d2 43 27 11 	mov.b	#1,	&0x1127	;r3 As==01
    4d28:	c2 43 5e 11 	mov.b	#0,	&0x115e	;r3 As==00
    4d2c:	b0 12 16 4b 	call	#0x4b16	
    4d30:	05 3c       	jmp	$+12     	;abs 0x4d3c
    4d32:	5f 43       	mov.b	#1,	r15	;r3 As==01
    4d34:	30 41       	ret			
    4d36:	7f 40 05 00 	mov.b	#5,	r15	;#0x0005
    4d3a:	30 41       	ret			
    4d3c:	4f 43       	clr.b	r15		
    4d3e:	30 41       	ret			
    4d40:	4f 43       	clr.b	r15		
    4d42:	30 41       	ret			

00004d44 <ArbiterP__1__ResourceDefaultOwner__release>:
    4d44:	d2 93 27 11 	cmp.b	#1,	&0x1127	;r3 As==01
    4d48:	13 20       	jnz	$+40     	;abs 0x4d70
    4d4a:	5f 42 5e 11 	mov.b	&0x115e,r15	
    4d4e:	5f 93       	cmp.b	#1,	r15	;r3 As==01
    4d50:	05 20       	jnz	$+12     	;abs 0x4d5c
    4d52:	7f 50 12 00 	add.b	#18,	r15	;#0x0012
    4d56:	b0 12 7a 4c 	call	#0x4c7a	
    4d5a:	08 3c       	jmp	$+18     	;abs 0x4d6c
    4d5c:	6f 93       	cmp.b	#2,	r15	;r3 As==10
    4d5e:	0a 20       	jnz	$+22     	;abs 0x4d74
    4d60:	d2 42 06 12 27 11 	mov.b	&0x1206,&0x1127	
    4d66:	f2 40 03 00 5e 11 	mov.b	#3,	&0x115e	;#0x0003
    4d6c:	4f 43       	clr.b	r15		
    4d6e:	30 41       	ret			
    4d70:	5f 43       	mov.b	#1,	r15	;r3 As==01
    4d72:	30 41       	ret			
    4d74:	5f 42 27 11 	mov.b	&0x1127,r15	
    4d78:	30 41       	ret			

00004d7a <SerialP__ReceiveBytePacket__endPacket>:
    4d7a:	c2 93 4e 11 	tst.b	&0x114e	
    4d7e:	2e 20       	jnz	$+94     	;abs 0x4ddc
    4d80:	4f 93       	tst.b	r15		
    4d82:	2c 20       	jnz	$+90     	;abs 0x4ddc
    4d84:	d2 43 4e 11 	mov.b	#1,	&0x114e	;r3 As==01
    4d88:	d2 42 1c 11 50 11 	mov.b	&0x111c,&0x1150	
    4d8e:	5e 42 3c 11 	mov.b	&0x113c,r14	
    4d92:	5e f3       	and.b	#1,	r14	;r3 As==01
    4d94:	c2 4e 93 11 	mov.b	r14,	&0x1193	
    4d98:	92 42 22 11 52 11 	mov	&0x1122,&0x1152	
    4d9e:	d2 42 3e 11 54 11 	mov.b	&0x113e,&0x1154	
    4da4:	5e 42 3c 11 	mov.b	&0x113c,r14	
    4da8:	5e f3       	and.b	#1,	r14	;r3 As==01
    4daa:	5d 43       	mov.b	#1,	r13	;r3 As==01
    4dac:	4e 9f       	cmp.b	r15,	r14	
    4dae:	01 24       	jz	$+4      	;abs 0x4db2
    4db0:	4d 4f       	mov.b	r15,	r13	
    4db2:	4f 4d       	mov.b	r13,	r15	
    4db4:	5f f3       	and.b	#1,	r15	;r3 As==01
    4db6:	5e 42 3c 11 	mov.b	&0x113c,r14	
    4dba:	7e f0 fe ff 	and.b	#-2,	r14	;#0xfffe
    4dbe:	4e df       	bis.b	r15,	r14	
    4dc0:	4f 4d       	mov.b	r13,	r15	
    4dc2:	0f 5f       	rla	r15		
    4dc4:	92 4f 1e 11 22 11 	mov	4382(r15),&0x1122	;0x111e(r15)
    4dca:	7e f0 e7 ff 	and.b	#-25,	r14	;#0xffe7
    4dce:	c2 4e 3c 11 	mov.b	r14,	&0x113c	
    4dd2:	7f 40 06 00 	mov.b	#6,	r15	;#0x0006
    4dd6:	b0 12 7a 4c 	call	#0x4c7a	
    4dda:	30 41       	ret			
    4ddc:	5e 42 3c 11 	mov.b	&0x113c,r14	
    4de0:	5e f3       	and.b	#1,	r14	;r3 As==01
    4de2:	5f 42 3c 11 	mov.b	&0x113c,r15	
    4de6:	03 24       	jz	$+8      	;abs 0x4dee
    4de8:	7f f0 fb ff 	and.b	#-5,	r15	;#0xfffb
    4dec:	02 3c       	jmp	$+6      	;abs 0x4df2
    4dee:	7f f0 fd ff 	and.b	#-3,	r15	;#0xfffd
    4df2:	c2 4f 3c 11 	mov.b	r15,	&0x113c	
    4df6:	30 41       	ret			

00004df8 <SerialP__testOff>:
    4df8:	f2 90 0a 00 42 15 	cmp.b	#10,	&0x1542	;#0x000a
    4dfe:	03 20       	jnz	$+8      	;abs 0x4e06
    4e00:	e2 92 fd 11 	cmp.b	#4,	&0x11fd	;r2 As==10
    4e04:	03 24       	jz	$+8      	;abs 0x4e0c
    4e06:	d2 43 3a 11 	mov.b	#1,	&0x113a	;r3 As==01
    4e0a:	30 41       	ret			
    4e0c:	7f 40 03 00 	mov.b	#3,	r15	;#0x0003
    4e10:	b0 12 7a 4c 	call	#0x4c7a	
    4e14:	c2 43 3a 11 	mov.b	#0,	&0x113a	;r3 As==00
    4e18:	30 41       	ret			

00004e1a <VirtualizeTimerC__0__Timer__startOneShotAt>:
    4e1a:	4f 4f       	mov.b	r15,	r15	
    4e1c:	0c 4f       	mov	r15,	r12	
    4e1e:	0c 5c       	rla	r12		
    4e20:	0c 5c       	rla	r12		
    4e22:	0c 5f       	add	r15,	r12	
    4e24:	0c 5c       	rla	r12		
    4e26:	0f 4c       	mov	r12,	r15	
    4e28:	3f 50 62 12 	add	#4706,	r15	;#0x1262
    4e2c:	8f 4d 00 00 	mov	r13,	0(r15)	;0x0000(r15)
    4e30:	8f 4e 02 00 	mov	r14,	2(r15)	;0x0002(r15)
    4e34:	9f 41 02 00 04 00 	mov	2(r1),	4(r15)	;0x0002(r1), 0x0004(r15)
    4e3a:	9f 41 04 00 06 00 	mov	4(r1),	6(r15)	;0x0004(r1), 0x0006(r15)
    4e40:	fc d0 03 00 6a 12 	bis.b	#3,	4714(r12);#0x0003, 0x126a(r12)
    4e46:	7f 42       	mov.b	#8,	r15	;r2 As==11
    4e48:	b0 12 7a 4c 	call	#0x4c7a	
    4e4c:	30 41       	ret			

00004e4e <CC2420SpiP__SpiPacket__send>:
    4e4e:	c2 43 28 12 	mov.b	#0,	&0x1228	;r3 As==00
    4e52:	82 4f 18 12 	mov	r15,	&0x1218	
    4e56:	82 4e 40 13 	mov	r14,	&0x1340	
    4e5a:	82 4d da 15 	mov	r13,	&0x15da	
    4e5e:	82 43 d6 15 	mov	#0,	&0x15d6	;r3 As==00
    4e62:	0d 93       	tst	r13		
    4e64:	0d 24       	jz	$+28     	;abs 0x4e80
    4e66:	b0 12 50 4b 	call	#0x4b50	
    4e6a:	f2 f0 bf ff 02 00 	and.b	#-65,	&0x0002	;#0xffbf
    4e70:	f2 d0 40 00 00 00 	bis.b	#64,	&0x0000	;#0x0040
    4e76:	b0 12 64 4b 	call	#0x4b64	
    4e7a:	b0 12 6c 4b 	call	#0x4b6c	
    4e7e:	04 3c       	jmp	$+10     	;abs 0x4e88
    4e80:	7f 40 12 00 	mov.b	#18,	r15	;#0x0012
    4e84:	b0 12 7a 4c 	call	#0x4c7a	
    4e88:	4f 43       	clr.b	r15		
    4e8a:	30 41       	ret			

00004e8c <CC2420ReceiveP__RXFIFO__beginRead>:
    4e8c:	0b 12       	push	r11		
    4e8e:	0a 12       	push	r10		
    4e90:	09 12       	push	r9		
    4e92:	0a 4f       	mov	r15,	r10	
    4e94:	49 4e       	mov.b	r14,	r9	
    4e96:	b0 12 50 4b 	call	#0x4b50	
    4e9a:	4b 4f       	mov.b	r15,	r11	
    4e9c:	b0 12 e2 4b 	call	#0x4be2	
    4ea0:	4f 93       	tst.b	r15		
    4ea2:	05 24       	jz	$+12     	;abs 0x4eae
    4ea4:	4f 4b       	mov.b	r11,	r15	
    4ea6:	b0 12 64 4b 	call	#0x4b64	
    4eaa:	4b 43       	clr.b	r11		
    4eac:	10 3c       	jmp	$+34     	;abs 0x4ece
    4eae:	4f 4b       	mov.b	r11,	r15	
    4eb0:	b0 12 64 4b 	call	#0x4b64	
    4eb4:	b2 40 7f 00 2a 12 	mov	#127,	&0x122a	;#0x007f
    4eba:	7f 40 7f 00 	mov.b	#127,	r15	;#0x007f
    4ebe:	b0 12 d6 46 	call	#0x46d6	
    4ec2:	4b 4f       	mov.b	r15,	r11	
    4ec4:	4d 49       	mov.b	r9,	r13	
    4ec6:	0e 4a       	mov	r10,	r14	
    4ec8:	0f 43       	clr	r15		
    4eca:	b0 12 4e 4e 	call	#0x4e4e	
    4ece:	4f 4b       	mov.b	r11,	r15	
    4ed0:	39 41       	pop	r9		
    4ed2:	3a 41       	pop	r10		
    4ed4:	3b 41       	pop	r11		
    4ed6:	30 41       	ret			

00004ed8 <CC2420ReceiveP__receive>:
    4ed8:	b0 12 6a 4c 	call	#0x4c6a	
    4edc:	5e 43       	mov.b	#1,	r14	;r3 As==01
    4ede:	1f 42 76 11 	mov	&0x1176,r15	
    4ee2:	b0 12 8c 4e 	call	#0x4e8c	
    4ee6:	30 41       	ret			

00004ee8 <CC2420TransmitP__Send__sendDone.clone.148>:
    4ee8:	0b 12       	push	r11		
    4eea:	4b 4f       	mov.b	r15,	r11	
    4eec:	b0 12 50 4b 	call	#0x4b50	
    4ef0:	c2 4b 58 11 	mov.b	r11,	&0x1158	
    4ef4:	b0 12 64 4b 	call	#0x4b64	
    4ef8:	7f 40 0e 00 	mov.b	#14,	r15	;#0x000e
    4efc:	b0 12 7a 4c 	call	#0x4c7a	
    4f00:	3b 41       	pop	r11		
    4f02:	30 41       	ret			

00004f04 <CC2420TransmitP__signalDone>:
    4f04:	0b 12       	push	r11		
    4f06:	4b 4f       	mov.b	r15,	r11	
    4f08:	92 43 6c 11 	mov	#1,	&0x116c	;r3 As==01
    4f0c:	c2 43 99 11 	mov.b	#0,	&0x1199	;r3 As==00
    4f10:	b0 12 ba 4c 	call	#0x4cba	
    4f14:	4f 4b       	mov.b	r11,	r15	
    4f16:	b0 12 e8 4e 	call	#0x4ee8	
    4f1a:	3b 41       	pop	r11		
    4f1c:	30 41       	ret			

00004f1e <StateImplP__State__toIdle>:
    4f1e:	0b 12       	push	r11		
    4f20:	4b 4f       	mov.b	r15,	r11	
    4f22:	b0 12 50 4b 	call	#0x4b50	
    4f26:	4e 4b       	mov.b	r11,	r14	
    4f28:	ce 43 4a 15 	mov.b	#0,	5450(r14);r3 As==00, 0x154a(r14)
    4f2c:	b0 12 64 4b 	call	#0x4b64	
    4f30:	3b 41       	pop	r11		
    4f32:	30 41       	ret			

00004f34 <Msp430GpioC__4__GeneralIO__set>:
    4f34:	b0 12 50 4b 	call	#0x4b50	
    4f38:	e2 d2 1d 00 	bis.b	#4,	&0x001d	;r2 As==10
    4f3c:	b0 12 64 4b 	call	#0x4b64	
    4f40:	30 41       	ret			

00004f42 <CC2420SpiP__Resource__release>:
    4f42:	0b 12       	push	r11		
    4f44:	0a 12       	push	r10		
    4f46:	09 12       	push	r9		
    4f48:	08 12       	push	r8		
    4f4a:	07 12       	push	r7		
    4f4c:	49 4f       	mov.b	r15,	r9	
    4f4e:	b0 12 50 4b 	call	#0x4b50	
    4f52:	47 4f       	mov.b	r15,	r7	
    4f54:	c2 99 24 11 	cmp.b	r9,	&0x1124	
    4f58:	04 24       	jz	$+10     	;abs 0x4f62
    4f5a:	b0 12 64 4b 	call	#0x4b64	
    4f5e:	5f 43       	mov.b	#1,	r15	;r3 As==01
    4f60:	38 3c       	jmp	$+114    	;abs 0x4fd2
    4f62:	f2 43 24 11 	mov.b	#-1,	&0x1124	;r3 As==11
    4f66:	59 42 5c 11 	mov.b	&0x115c,r9	
    4f6a:	49 93       	tst.b	r9		
    4f6c:	03 24       	jz	$+8      	;abs 0x4f74
    4f6e:	4c 43       	clr.b	r12		
    4f70:	48 49       	mov.b	r9,	r8	
    4f72:	0a 3c       	jmp	$+22     	;abs 0x4f88
    4f74:	5f 43       	mov.b	#1,	r15	;r3 As==01
    4f76:	b0 12 1e 4f 	call	#0x4f1e	
    4f7a:	b0 12 ba 4c 	call	#0x4cba	
    4f7e:	4f 47       	mov.b	r7,	r15	
    4f80:	b0 12 64 4b 	call	#0x4b64	
    4f84:	4f 49       	mov.b	r9,	r15	
    4f86:	25 3c       	jmp	$+76     	;abs 0x4fd2
    4f88:	7a 40 05 00 	mov.b	#5,	r10	;#0x0005
    4f8c:	b0 12 98 8a 	call	#0x8a98	
    4f90:	4c 4e       	mov.b	r14,	r12	
    4f92:	0f 4c       	mov	r12,	r15	
    4f94:	0d 48       	mov	r8,	r13	
    4f96:	0f 93       	tst	r15		
    4f98:	03 24       	jz	$+8      	;abs 0x4fa0
    4f9a:	0d 11       	rra	r13		
    4f9c:	1f 83       	dec	r15		
    4f9e:	fd 23       	jnz	$-4      	;abs 0x4f9a
    4fa0:	1d f3       	and	#1,	r13	;r3 As==01
    4fa2:	14 24       	jz	$+42     	;abs 0x4fcc
    4fa4:	c2 4e 24 11 	mov.b	r14,	&0x1124	
    4fa8:	1e 43       	mov	#1,	r14	;r3 As==01
    4faa:	0c 93       	tst	r12		
    4fac:	03 24       	jz	$+8      	;abs 0x4fb4
    4fae:	0e 5e       	rla	r14		
    4fb0:	1c 83       	dec	r12		
    4fb2:	fd 23       	jnz	$-4      	;abs 0x4fae
    4fb4:	49 ce       	bic.b	r14,	r9	
    4fb6:	c2 49 5c 11 	mov.b	r9,	&0x115c	
    4fba:	7f 40 11 00 	mov.b	#17,	r15	;#0x0011
    4fbe:	b0 12 7a 4c 	call	#0x4c7a	
    4fc2:	4f 47       	mov.b	r7,	r15	
    4fc4:	b0 12 64 4b 	call	#0x4b64	
    4fc8:	4f 43       	clr.b	r15		
    4fca:	03 3c       	jmp	$+8      	;abs 0x4fd2
    4fcc:	4c 4e       	mov.b	r14,	r12	
    4fce:	5c 53       	inc.b	r12		
    4fd0:	db 3f       	jmp	$-72     	;abs 0x4f88
    4fd2:	37 41       	pop	r7		
    4fd4:	38 41       	pop	r8		
    4fd6:	39 41       	pop	r9		
    4fd8:	3a 41       	pop	r10		
    4fda:	3b 41       	pop	r11		
    4fdc:	30 41       	ret			

00004fde <CC2420ReceiveP__SpiResource__release>:
    4fde:	6f 42       	mov.b	#4,	r15	;r2 As==10
    4fe0:	b0 12 42 4f 	call	#0x4f42	
    4fe4:	30 41       	ret			

00004fe6 <CC2420TransmitP__releaseSpiResource>:
    4fe6:	7f 40 03 00 	mov.b	#3,	r15	;#0x0003
    4fea:	b0 12 42 4f 	call	#0x4f42	
    4fee:	4f 43       	clr.b	r15		
    4ff0:	30 41       	ret			

00004ff2 <TransformCounterC__0__Counter__get>:
    4ff2:	0b 12       	push	r11		
    4ff4:	0a 12       	push	r10		
    4ff6:	09 12       	push	r9		
    4ff8:	b0 12 50 4b 	call	#0x4b50	
    4ffc:	49 4f       	mov.b	r15,	r9	
    4ffe:	1b 42 56 12 	mov	&0x1256,r11	
    5002:	b0 12 cc 47 	call	#0x47cc	
    5006:	0a 4f       	mov	r15,	r10	
    5008:	1f 42 80 01 	mov	&0x0180,r15	
    500c:	5f f3       	and.b	#1,	r15	;r3 As==01
    500e:	04 24       	jz	$+10     	;abs 0x5018
    5010:	1b 53       	inc	r11		
    5012:	b0 12 cc 47 	call	#0x47cc	
    5016:	0a 4f       	mov	r15,	r10	
    5018:	4f 49       	mov.b	r9,	r15	
    501a:	b0 12 64 4b 	call	#0x4b64	
    501e:	0f 4b       	mov	r11,	r15	
    5020:	0e 43       	clr	r14		
    5022:	0c 4a       	mov	r10,	r12	
    5024:	0d 4e       	mov	r14,	r13	
    5026:	0e dc       	bis	r12,	r14	
    5028:	0f dd       	bis	r13,	r15	
    502a:	39 41       	pop	r9		
    502c:	3a 41       	pop	r10		
    502e:	3b 41       	pop	r11		
    5030:	30 41       	ret			

00005032 <TransformAlarmC__2__set_alarm>:
    5032:	0b 12       	push	r11		
    5034:	0a 12       	push	r10		
    5036:	09 12       	push	r9		
    5038:	b0 12 f2 4f 	call	#0x4ff2	
    503c:	09 4e       	mov	r14,	r9	
    503e:	0a 4f       	mov	r15,	r10	
    5040:	1b 42 5a 15 	mov	&0x155a,r11	
    5044:	1c 42 5c 15 	mov	&0x155c,r12	
    5048:	0d 4b       	mov	r11,	r13	
    504a:	0e 4c       	mov	r12,	r14	
    504c:	1d 52 fe 11 	add	&0x11fe,r13	
    5050:	1e 62 00 12 	addc	&0x1200,r14	
    5054:	0a 9c       	cmp	r12,	r10	
    5056:	0b 28       	jnc	$+24     	;abs 0x506e
    5058:	0a 9c       	cmp	r12,	r10	
    505a:	02 20       	jnz	$+6      	;abs 0x5060
    505c:	09 9b       	cmp	r11,	r9	
    505e:	07 28       	jnc	$+16     	;abs 0x506e
    5060:	0e 9c       	cmp	r12,	r14	
    5062:	11 28       	jnc	$+36     	;abs 0x5086
    5064:	0e 9c       	cmp	r12,	r14	
    5066:	09 20       	jnz	$+20     	;abs 0x507a
    5068:	0d 9b       	cmp	r11,	r13	
    506a:	0d 28       	jnc	$+28     	;abs 0x5086
    506c:	06 3c       	jmp	$+14     	;abs 0x507a
    506e:	0e 9c       	cmp	r12,	r14	
    5070:	04 28       	jnc	$+10     	;abs 0x507a
    5072:	0c 9e       	cmp	r14,	r12	
    5074:	27 28       	jnc	$+80     	;abs 0x50c4
    5076:	0d 9b       	cmp	r11,	r13	
    5078:	25 2c       	jc	$+76     	;abs 0x50c4
    507a:	0a 9e       	cmp	r14,	r10	
    507c:	04 28       	jnc	$+10     	;abs 0x5086
    507e:	0e 9a       	cmp	r10,	r14	
    5080:	21 28       	jnc	$+68     	;abs 0x50c4
    5082:	09 9d       	cmp	r13,	r9	
    5084:	1f 2c       	jc	$+64     	;abs 0x50c4
    5086:	0b 4d       	mov	r13,	r11	
    5088:	0c 4e       	mov	r14,	r12	
    508a:	0b 89       	sub	r9,	r11	
    508c:	0c 7a       	subc	r10,	r12	
    508e:	0c 93       	tst	r12		
    5090:	03 20       	jnz	$+8      	;abs 0x5098
    5092:	3b 90 01 80 	cmp	#-32767,r11	;#0x8001
    5096:	18 28       	jnc	$+50     	;abs 0x50c8
    5098:	0e 49       	mov	r9,	r14	
    509a:	0f 4a       	mov	r10,	r15	
    509c:	3e 50 00 80 	add	#-32768,r14	;#0x8000
    50a0:	0f 63       	adc	r15		
    50a2:	82 4e 5a 15 	mov	r14,	&0x155a	
    50a6:	82 4f 5c 15 	mov	r15,	&0x155c	
    50aa:	0e 4b       	mov	r11,	r14	
    50ac:	0f 4c       	mov	r12,	r15	
    50ae:	3e 50 00 80 	add	#-32768,r14	;#0x8000
    50b2:	3f 63       	addc	#-1,	r15	;r3 As==11
    50b4:	82 4e fe 11 	mov	r14,	&0x11fe	
    50b8:	82 4f 00 12 	mov	r15,	&0x1200	
    50bc:	3b 40 00 80 	mov	#-32768,r11	;#0x8000
    50c0:	0c 43       	clr	r12		
    50c2:	0a 3c       	jmp	$+22     	;abs 0x50d8
    50c4:	0b 43       	clr	r11		
    50c6:	0c 43       	clr	r12		
    50c8:	82 4d 5a 15 	mov	r13,	&0x155a	
    50cc:	82 4e 5c 15 	mov	r14,	&0x155c	
    50d0:	82 43 fe 11 	mov	#0,	&0x11fe	;r3 As==00
    50d4:	82 43 00 12 	mov	#0,	&0x1200	;r3 As==00
    50d8:	b0 12 cc 47 	call	#0x47cc	
    50dc:	0e 4f       	mov	r15,	r14	
    50de:	0e 89       	sub	r9,	r14	
    50e0:	0e 9b       	cmp	r11,	r14	
    50e2:	04 2c       	jc	$+10     	;abs 0x50ec
    50e4:	0b 8e       	sub	r14,	r11	
    50e6:	3b 90 03 00 	cmp	#3,	r11	;#0x0003
    50ea:	06 2c       	jc	$+14     	;abs 0x50f8
    50ec:	b0 12 cc 47 	call	#0x47cc	
    50f0:	2f 53       	incd	r15		
    50f2:	82 4f 98 01 	mov	r15,	&0x0198	
    50f6:	03 3c       	jmp	$+8      	;abs 0x50fe
    50f8:	0b 5f       	add	r15,	r11	
    50fa:	82 4b 98 01 	mov	r11,	&0x0198	
    50fe:	b2 f0 fe ff 88 01 	and	#-2,	&0x0188	;#0xfffe
    5104:	b2 d0 10 00 88 01 	bis	#16,	&0x0188	;#0x0010
    510a:	39 41       	pop	r9		
    510c:	3a 41       	pop	r10		
    510e:	3b 41       	pop	r11		
    5110:	30 41       	ret			

00005112 <TransformAlarmC__0__set_alarm>:
    5112:	0b 12       	push	r11		
    5114:	0a 12       	push	r10		
    5116:	09 12       	push	r9		
    5118:	b0 12 f2 4f 	call	#0x4ff2	
    511c:	09 4e       	mov	r14,	r9	
    511e:	0a 4f       	mov	r15,	r10	
    5120:	1b 42 22 12 	mov	&0x1222,r11	
    5124:	1c 42 24 12 	mov	&0x1224,r12	
    5128:	0d 4b       	mov	r11,	r13	
    512a:	0e 4c       	mov	r12,	r14	
    512c:	1d 52 1c 12 	add	&0x121c,r13	
    5130:	1e 62 1e 12 	addc	&0x121e,r14	
    5134:	0a 9c       	cmp	r12,	r10	
    5136:	0b 28       	jnc	$+24     	;abs 0x514e
    5138:	0a 9c       	cmp	r12,	r10	
    513a:	02 20       	jnz	$+6      	;abs 0x5140
    513c:	09 9b       	cmp	r11,	r9	
    513e:	07 28       	jnc	$+16     	;abs 0x514e
    5140:	0e 9c       	cmp	r12,	r14	
    5142:	11 28       	jnc	$+36     	;abs 0x5166
    5144:	0e 9c       	cmp	r12,	r14	
    5146:	09 20       	jnz	$+20     	;abs 0x515a
    5148:	0d 9b       	cmp	r11,	r13	
    514a:	0d 28       	jnc	$+28     	;abs 0x5166
    514c:	06 3c       	jmp	$+14     	;abs 0x515a
    514e:	0e 9c       	cmp	r12,	r14	
    5150:	04 28       	jnc	$+10     	;abs 0x515a
    5152:	0c 9e       	cmp	r14,	r12	
    5154:	27 28       	jnc	$+80     	;abs 0x51a4
    5156:	0d 9b       	cmp	r11,	r13	
    5158:	25 2c       	jc	$+76     	;abs 0x51a4
    515a:	0a 9e       	cmp	r14,	r10	
    515c:	04 28       	jnc	$+10     	;abs 0x5166
    515e:	0e 9a       	cmp	r10,	r14	
    5160:	21 28       	jnc	$+68     	;abs 0x51a4
    5162:	09 9d       	cmp	r13,	r9	
    5164:	1f 2c       	jc	$+64     	;abs 0x51a4
    5166:	0b 4d       	mov	r13,	r11	
    5168:	0c 4e       	mov	r14,	r12	
    516a:	0b 89       	sub	r9,	r11	
    516c:	0c 7a       	subc	r10,	r12	
    516e:	0c 93       	tst	r12		
    5170:	03 20       	jnz	$+8      	;abs 0x5178
    5172:	3b 90 01 80 	cmp	#-32767,r11	;#0x8001
    5176:	18 28       	jnc	$+50     	;abs 0x51a8
    5178:	0e 49       	mov	r9,	r14	
    517a:	0f 4a       	mov	r10,	r15	
    517c:	3e 50 00 80 	add	#-32768,r14	;#0x8000
    5180:	0f 63       	adc	r15		
    5182:	82 4e 22 12 	mov	r14,	&0x1222	
    5186:	82 4f 24 12 	mov	r15,	&0x1224	
    518a:	0e 4b       	mov	r11,	r14	
    518c:	0f 4c       	mov	r12,	r15	
    518e:	3e 50 00 80 	add	#-32768,r14	;#0x8000
    5192:	3f 63       	addc	#-1,	r15	;r3 As==11
    5194:	82 4e 1c 12 	mov	r14,	&0x121c	
    5198:	82 4f 1e 12 	mov	r15,	&0x121e	
    519c:	3b 40 00 80 	mov	#-32768,r11	;#0x8000
    51a0:	0c 43       	clr	r12		
    51a2:	0a 3c       	jmp	$+22     	;abs 0x51b8
    51a4:	0b 43       	clr	r11		
    51a6:	0c 43       	clr	r12		
    51a8:	82 4d 22 12 	mov	r13,	&0x1222	
    51ac:	82 4e 24 12 	mov	r14,	&0x1224	
    51b0:	82 43 1c 12 	mov	#0,	&0x121c	;r3 As==00
    51b4:	82 43 1e 12 	mov	#0,	&0x121e	;r3 As==00
    51b8:	b0 12 cc 47 	call	#0x47cc	
    51bc:	0e 4f       	mov	r15,	r14	
    51be:	0e 89       	sub	r9,	r14	
    51c0:	0e 9b       	cmp	r11,	r14	
    51c2:	04 2c       	jc	$+10     	;abs 0x51cc
    51c4:	0b 8e       	sub	r14,	r11	
    51c6:	3b 90 03 00 	cmp	#3,	r11	;#0x0003
    51ca:	06 2c       	jc	$+14     	;abs 0x51d8
    51cc:	b0 12 cc 47 	call	#0x47cc	
    51d0:	2f 53       	incd	r15		
    51d2:	82 4f 92 01 	mov	r15,	&0x0192	
    51d6:	03 3c       	jmp	$+8      	;abs 0x51de
    51d8:	0b 5f       	add	r15,	r11	
    51da:	82 4b 92 01 	mov	r11,	&0x0192	
    51de:	b2 f0 fe ff 82 01 	and	#-2,	&0x0182	;#0xfffe
    51e4:	b2 d0 10 00 82 01 	bis	#16,	&0x0182	;#0x0010
    51ea:	39 41       	pop	r9		
    51ec:	3a 41       	pop	r10		
    51ee:	3b 41       	pop	r11		
    51f0:	30 41       	ret			

000051f2 <VirtualizeTimerC__0__Timer__startOneShot>:
    51f2:	0b 12       	push	r11		
    51f4:	0a 12       	push	r10		
    51f6:	09 12       	push	r9		
    51f8:	49 4f       	mov.b	r15,	r9	
    51fa:	0a 4d       	mov	r13,	r10	
    51fc:	0b 4e       	mov	r14,	r11	
    51fe:	b0 12 f2 4f 	call	#0x4ff2	
    5202:	4d 49       	mov.b	r9,	r13	
    5204:	0c 4d       	mov	r13,	r12	
    5206:	0c 5c       	rla	r12		
    5208:	0c 5c       	rla	r12		
    520a:	0c 5d       	add	r13,	r12	
    520c:	0c 5c       	rla	r12		
    520e:	0d 4c       	mov	r12,	r13	
    5210:	3d 50 62 12 	add	#4706,	r13	;#0x1262
    5214:	8d 4e 00 00 	mov	r14,	0(r13)	;0x0000(r13)
    5218:	8d 4f 02 00 	mov	r15,	2(r13)	;0x0002(r13)
    521c:	8d 4a 04 00 	mov	r10,	4(r13)	;0x0004(r13)
    5220:	8d 4b 06 00 	mov	r11,	6(r13)	;0x0006(r13)
    5224:	fc d0 03 00 6a 12 	bis.b	#3,	4714(r12);#0x0003, 0x126a(r12)
    522a:	7f 42       	mov.b	#8,	r15	;r2 As==11
    522c:	b0 12 7a 4c 	call	#0x4c7a	
    5230:	39 41       	pop	r9		
    5232:	3a 41       	pop	r10		
    5234:	3b 41       	pop	r11		
    5236:	30 41       	ret			

00005238 <VirtualizeTimerC__0__Timer__startPeriodic.clone.172>:
    5238:	0b 12       	push	r11		
    523a:	4b 4f       	mov.b	r15,	r11	
    523c:	b0 12 f2 4f 	call	#0x4ff2	
    5240:	4c 4b       	mov.b	r11,	r12	
    5242:	0d 4c       	mov	r12,	r13	
    5244:	0d 5d       	rla	r13		
    5246:	0d 5d       	rla	r13		
    5248:	0d 5c       	add	r12,	r13	
    524a:	0d 5d       	rla	r13		
    524c:	0c 4d       	mov	r13,	r12	
    524e:	3c 50 62 12 	add	#4706,	r12	;#0x1262
    5252:	8c 4e 00 00 	mov	r14,	0(r12)	;0x0000(r12)
    5256:	8c 4f 02 00 	mov	r15,	2(r12)	;0x0002(r12)
    525a:	bc 40 00 80 04 00 	mov	#-32768,4(r12)	;#0x8000, 0x0004(r12)
    5260:	8c 43 06 00 	mov	#0,	6(r12)	;r3 As==00, 0x0006(r12)
    5264:	5f 4d 6a 12 	mov.b	4714(r13),r15	;0x126a(r13)
    5268:	7f f0 fc ff 	and.b	#-4,	r15	;#0xfffc
    526c:	6f d3       	bis.b	#2,	r15	;r3 As==10
    526e:	cd 4f 6a 12 	mov.b	r15,	4714(r13);0x126a(r13)
    5272:	7f 42       	mov.b	#8,	r15	;r2 As==11
    5274:	b0 12 7a 4c 	call	#0x4c7a	
    5278:	3b 41       	pop	r11		
    527a:	30 41       	ret			

0000527c <TransformAlarmC__2__Alarm__start>:
    527c:	0b 12       	push	r11		
    527e:	0a 12       	push	r10		
    5280:	09 12       	push	r9		
    5282:	08 12       	push	r8		
    5284:	21 83       	decd	r1		
    5286:	0a 4e       	mov	r14,	r10	
    5288:	0b 4f       	mov	r15,	r11	
    528a:	b0 12 f2 4f 	call	#0x4ff2	
    528e:	08 4e       	mov	r14,	r8	
    5290:	09 4f       	mov	r15,	r9	
    5292:	b0 12 50 4b 	call	#0x4b50	
    5296:	82 48 5a 15 	mov	r8,	&0x155a	
    529a:	82 49 5c 15 	mov	r9,	&0x155c	
    529e:	82 4a fe 11 	mov	r10,	&0x11fe	
    52a2:	82 4b 00 12 	mov	r11,	&0x1200	
    52a6:	81 4f 00 00 	mov	r15,	0(r1)	;0x0000(r1)
    52aa:	b0 12 32 50 	call	#0x5032	
    52ae:	2f 41       	mov	@r1,	r15	
    52b0:	b0 12 64 4b 	call	#0x4b64	
    52b4:	21 53       	incd	r1		
    52b6:	38 41       	pop	r8		
    52b8:	39 41       	pop	r9		
    52ba:	3a 41       	pop	r10		
    52bc:	3b 41       	pop	r11		
    52be:	30 41       	ret			

000052c0 <CC2420TransmitP__congestionBackoff>:
    52c0:	0b 12       	push	r11		
    52c2:	0a 12       	push	r10		
    52c4:	09 12       	push	r9		
    52c6:	b0 12 50 4b 	call	#0x4b50	
    52ca:	49 4f       	mov.b	r15,	r9	
    52cc:	b0 12 04 46 	call	#0x4604	
    52d0:	0c 4f       	mov	r15,	r12	
    52d2:	3a 40 46 00 	mov	#70,	r10	;#0x0046
    52d6:	b0 12 b4 8a 	call	#0x8ab4	
    52da:	3e 50 0b 00 	add	#11,	r14	;#0x000b
    52de:	82 4e 26 16 	mov	r14,	&0x1626	
    52e2:	0f 43       	clr	r15		
    52e4:	b0 12 7c 52 	call	#0x527c	
    52e8:	4f 49       	mov.b	r9,	r15	
    52ea:	b0 12 64 4b 	call	#0x4b64	
    52ee:	39 41       	pop	r9		
    52f0:	3a 41       	pop	r10		
    52f2:	3b 41       	pop	r11		
    52f4:	30 41       	ret			

000052f6 <CC2420TransmitP__attemptSend>:
    52f6:	0b 12       	push	r11		
    52f8:	0a 12       	push	r10		
    52fa:	b0 12 50 4b 	call	#0x4b50	
    52fe:	4a 4f       	mov.b	r15,	r10	
    5300:	b2 92 6c 11 	cmp	#8,	&0x116c	;r2 As==11
    5304:	10 20       	jnz	$+34     	;abs 0x5326
    5306:	b0 12 2c 4c 	call	#0x4c2c	
    530a:	b0 12 e6 4f 	call	#0x4fe6	
    530e:	b0 12 34 4f 	call	#0x4f34	
    5312:	92 43 6c 11 	mov	#1,	&0x116c	;r3 As==01
    5316:	7f 40 03 00 	mov.b	#3,	r15	;#0x0003
    531a:	b0 12 e8 4e 	call	#0x4ee8	
    531e:	4f 4a       	mov.b	r10,	r15	
    5320:	b0 12 64 4b 	call	#0x4b64	
    5324:	2f 3c       	jmp	$+96     	;abs 0x5384
    5326:	b0 12 6a 4c 	call	#0x4c6a	
    532a:	c2 93 2a 16 	tst.b	&0x162a	
    532e:	03 24       	jz	$+8      	;abs 0x5336
    5330:	7f 40 05 00 	mov.b	#5,	r15	;#0x0005
    5334:	01 3c       	jmp	$+4      	;abs 0x5338
    5336:	6f 42       	mov.b	#4,	r15	;r2 As==10
    5338:	b0 12 fc 4b 	call	#0x4bfc	
    533c:	4b 4f       	mov.b	r15,	r11	
    533e:	3b f2       	and	#8,	r11	;r2 As==11
    5340:	06 20       	jnz	$+14     	;abs 0x534e
    5342:	4f 4b       	mov.b	r11,	r15	
    5344:	b0 12 fc 4b 	call	#0x4bfc	
    5348:	3f f2       	and	#8,	r15	;r2 As==11
    534a:	0f 9b       	cmp	r11,	r15	
    534c:	04 20       	jnz	$+10     	;abs 0x5356
    534e:	5b 43       	mov.b	#1,	r11	;r3 As==01
    5350:	3f 40 03 00 	mov	#3,	r15	;#0x0003
    5354:	02 3c       	jmp	$+6      	;abs 0x535a
    5356:	3f 40 05 00 	mov	#5,	r15	;#0x0005
    535a:	82 4f 6c 11 	mov	r15,	&0x116c	
    535e:	b0 12 34 4f 	call	#0x4f34	
    5362:	4f 4a       	mov.b	r10,	r15	
    5364:	b0 12 64 4b 	call	#0x4b64	
    5368:	4b 93       	tst.b	r11		
    536a:	07 24       	jz	$+16     	;abs 0x537a
    536c:	c2 43 7e 11 	mov.b	#0,	&0x117e	;r3 As==00
    5370:	b0 12 e6 4f 	call	#0x4fe6	
    5374:	b0 12 c0 52 	call	#0x52c0	
    5378:	05 3c       	jmp	$+12     	;abs 0x5384
    537a:	3e 40 40 01 	mov	#320,	r14	;#0x0140
    537e:	0f 43       	clr	r15		
    5380:	b0 12 7c 52 	call	#0x527c	
    5384:	3a 41       	pop	r10		
    5386:	3b 41       	pop	r11		
    5388:	30 41       	ret			

0000538a <CC2420SpiP__Reg__write>:
    538a:	0b 12       	push	r11		
    538c:	0a 12       	push	r10		
    538e:	09 12       	push	r9		
    5390:	49 4f       	mov.b	r15,	r9	
    5392:	0a 4e       	mov	r14,	r10	
    5394:	b0 12 50 4b 	call	#0x4b50	
    5398:	4b 4f       	mov.b	r15,	r11	
    539a:	b0 12 e2 4b 	call	#0x4be2	
    539e:	4f 93       	tst.b	r15		
    53a0:	05 24       	jz	$+12     	;abs 0x53ac
    53a2:	4f 4b       	mov.b	r11,	r15	
    53a4:	b0 12 64 4b 	call	#0x4b64	
    53a8:	4f 43       	clr.b	r15		
    53aa:	0d 3c       	jmp	$+28     	;abs 0x53c6
    53ac:	4f 4b       	mov.b	r11,	r15	
    53ae:	b0 12 64 4b 	call	#0x4b64	
    53b2:	4f 49       	mov.b	r9,	r15	
    53b4:	b0 12 d6 46 	call	#0x46d6	
    53b8:	0f 4a       	mov	r10,	r15	
    53ba:	8f 10       	swpb	r15		
    53bc:	b0 12 d6 46 	call	#0x46d6	
    53c0:	4f 4a       	mov.b	r10,	r15	
    53c2:	b0 12 d6 46 	call	#0x46d6	
    53c6:	39 41       	pop	r9		
    53c8:	3a 41       	pop	r10		
    53ca:	3b 41       	pop	r11		
    53cc:	30 41       	ret			

000053ce <CC2420SpiP__Ram__write>:
    53ce:	0b 12       	push	r11		
    53d0:	0a 12       	push	r10		
    53d2:	09 12       	push	r9		
    53d4:	08 12       	push	r8		
    53d6:	07 12       	push	r7		
    53d8:	09 4f       	mov	r15,	r9	
    53da:	4b 4e       	mov.b	r14,	r11	
    53dc:	07 4d       	mov	r13,	r7	
    53de:	48 4c       	mov.b	r12,	r8	
    53e0:	b0 12 50 4b 	call	#0x4b50	
    53e4:	4a 4f       	mov.b	r15,	r10	
    53e6:	b0 12 e2 4b 	call	#0x4be2	
    53ea:	4f 93       	tst.b	r15		
    53ec:	05 24       	jz	$+12     	;abs 0x53f8
    53ee:	4f 4a       	mov.b	r10,	r15	
    53f0:	b0 12 64 4b 	call	#0x4b64	
    53f4:	4f 43       	clr.b	r15		
    53f6:	22 3c       	jmp	$+70     	;abs 0x543c
    53f8:	4f 4a       	mov.b	r10,	r15	
    53fa:	b0 12 64 4b 	call	#0x4b64	
    53fe:	4b 4b       	mov.b	r11,	r11	
    5400:	0b 59       	add	r9,	r11	
    5402:	4f 4b       	mov.b	r11,	r15	
    5404:	7f d0 80 ff 	bis.b	#-128,	r15	;#0xff80
    5408:	b0 12 d6 46 	call	#0x46d6	
    540c:	49 4f       	mov.b	r15,	r9	
    540e:	0e 4b       	mov	r11,	r14	
    5410:	12 c3       	clrc			
    5412:	0e 10       	rrc	r14		
    5414:	4f 4e       	mov.b	r14,	r15	
    5416:	7f f0 c0 ff 	and.b	#-64,	r15	;#0xffc0
    541a:	b0 12 d6 46 	call	#0x46d6	
    541e:	4b 48       	mov.b	r8,	r11	
    5420:	4a 48       	mov.b	r8,	r10	
    5422:	09 3c       	jmp	$+20     	;abs 0x5436
    5424:	4e 4b       	mov.b	r11,	r14	
    5426:	0f 4a       	mov	r10,	r15	
    5428:	0f 8e       	sub	r14,	r15	
    542a:	0e 4f       	mov	r15,	r14	
    542c:	0e 57       	add	r7,	r14	
    542e:	6f 4e       	mov.b	@r14,	r15	
    5430:	b0 12 d6 46 	call	#0x46d6	
    5434:	7b 53       	add.b	#-1,	r11	;r3 As==11
    5436:	4b 93       	tst.b	r11		
    5438:	f5 23       	jnz	$-20     	;abs 0x5424
    543a:	4f 49       	mov.b	r9,	r15	
    543c:	37 41       	pop	r7		
    543e:	38 41       	pop	r8		
    5440:	39 41       	pop	r9		
    5442:	3a 41       	pop	r10		
    5444:	3b 41       	pop	r11		
    5446:	30 41       	ret			

00005448 <CC2420ControlP__writeId>:
    5448:	0b 12       	push	r11		
    544a:	31 50 f4 ff 	add	#-12,	r1	;#0xfff4
    544e:	b0 12 50 4b 	call	#0x4b50	
    5452:	4b 4f       	mov.b	r15,	r11	
    5454:	3d 42       	mov	#8,	r13	;r2 As==11
    5456:	3e 40 5e 15 	mov	#5470,	r14	;#0x155e
    545a:	0f 41       	mov	r1,	r15	
    545c:	b0 12 60 84 	call	#0x8460	
    5460:	1f 42 04 12 	mov	&0x1204,r15	
    5464:	0e 41       	mov	r1,	r14	
    5466:	3e 52       	add	#8,	r14	;r2 As==11
    5468:	ce 4f 00 00 	mov.b	r15,	0(r14)	;0x0000(r14)
    546c:	8f 10       	swpb	r15		
    546e:	ce 4f 01 00 	mov.b	r15,	1(r14)	;0x0001(r14)
    5472:	1f 42 26 12 	mov	&0x1226,r15	
    5476:	2e 53       	incd	r14		
    5478:	ce 4f 00 00 	mov.b	r15,	0(r14)	;0x0000(r14)
    547c:	8f 10       	swpb	r15		
    547e:	ce 4f 01 00 	mov.b	r15,	1(r14)	;0x0001(r14)
    5482:	4f 4b       	mov.b	r11,	r15	
    5484:	b0 12 64 4b 	call	#0x4b64	
    5488:	7c 40 0c 00 	mov.b	#12,	r12	;#0x000c
    548c:	0d 41       	mov	r1,	r13	
    548e:	4e 43       	clr.b	r14		
    5490:	3f 40 60 01 	mov	#352,	r15	;#0x0160
    5494:	b0 12 ce 53 	call	#0x53ce	
    5498:	31 50 0c 00 	add	#12,	r1	;#0x000c
    549c:	3b 41       	pop	r11		
    549e:	30 41       	ret			

000054a0 <SerialP__MaybeScheduleTx>:
    54a0:	0b 12       	push	r11		
    54a2:	b0 12 50 4b 	call	#0x4b50	
    54a6:	4b 4f       	mov.b	r15,	r11	
    54a8:	c2 93 25 16 	tst.b	&0x1625	
    54ac:	07 20       	jnz	$+16     	;abs 0x54bc
    54ae:	5f 43       	mov.b	#1,	r15	;r3 As==01
    54b0:	b0 12 7a 4c 	call	#0x4c7a	
    54b4:	4f 93       	tst.b	r15		
    54b6:	02 20       	jnz	$+6      	;abs 0x54bc
    54b8:	d2 43 25 16 	mov.b	#1,	&0x1625	;r3 As==01
    54bc:	4f 4b       	mov.b	r11,	r15	
    54be:	b0 12 64 4b 	call	#0x4b64	
    54c2:	3b 41       	pop	r11		
    54c4:	30 41       	ret			

000054c6 <SerialP__rx_state_machine>:
    54c6:	0b 12       	push	r11		
    54c8:	0a 12       	push	r10		
    54ca:	09 12       	push	r9		
    54cc:	4b 4f       	mov.b	r15,	r11	
    54ce:	4a 4e       	mov.b	r14,	r10	
    54d0:	5f 42 fd 11 	mov.b	&0x11fd,r15	
    54d4:	59 43       	mov.b	#1,	r9	;r3 As==01
    54d6:	4f 99       	cmp.b	r9,	r15	
    54d8:	14 24       	jz	$+42     	;abs 0x5502
    54da:	4f 93       	tst.b	r15		
    54dc:	08 24       	jz	$+18     	;abs 0x54ee
    54de:	6f 93       	cmp.b	#2,	r15	;r3 As==10
    54e0:	49 24       	jz	$+148    	;abs 0x5574
    54e2:	7f 90 03 00 	cmp.b	#3,	r15	;#0x0003
    54e6:	02 24       	jz	$+6      	;abs 0x54ec
    54e8:	30 40 d0 56 	br	#0x56d0	
    54ec:	51 3c       	jmp	$+164    	;abs 0x5590
    54ee:	4b 9f       	cmp.b	r15,	r11	
    54f0:	02 20       	jnz	$+6      	;abs 0x54f6
    54f2:	30 40 14 57 	br	#0x5714	
    54f6:	b0 12 42 47 	call	#0x4742	
    54fa:	c2 49 fd 11 	mov.b	r9,	&0x11fd	
    54fe:	30 40 14 57 	br	#0x5714	
    5502:	4b 93       	tst.b	r11		
    5504:	02 24       	jz	$+6      	;abs 0x550a
    5506:	30 40 14 57 	br	#0x5714	
    550a:	c2 4e 72 15 	mov.b	r14,	&0x1572	
    550e:	4d 4e       	mov.b	r14,	r13	
    5510:	7d 50 bc ff 	add.b	#-68,	r13	;#0xffbc
    5514:	4f 9d       	cmp.b	r13,	r15	
    5516:	02 2c       	jc	$+6      	;abs 0x551c
    5518:	30 40 d0 56 	br	#0x56d0	
    551c:	30 40 fa 56 	br	#0x56fa	
    5520:	e2 43 fd 11 	mov.b	#2,	&0x11fd	;r3 As==10
    5524:	03 3c       	jmp	$+8      	;abs 0x552c
    5526:	f2 40 03 00 fd 11 	mov.b	#3,	&0x11fd	;#0x0003
    552c:	5d 42 3c 11 	mov.b	&0x113c,r13	
    5530:	5d f3       	and.b	#1,	r13	;r3 As==01
    5532:	05 24       	jz	$+12     	;abs 0x553e
    5534:	e2 b2 3c 11 	bit.b	#4,	&0x113c	;r2 As==10
    5538:	4f 43       	clr.b	r15		
    553a:	4f 63       	adc.b	r15		
    553c:	04 3c       	jmp	$+10     	;abs 0x5546
    553e:	e2 b3 3c 11 	bit.b	#2,	&0x113c	;r3 As==10
    5542:	4f 43       	clr.b	r15		
    5544:	4f 63       	adc.b	r15		
    5546:	4f 93       	tst.b	r15		
    5548:	c3 20       	jnz	$+392    	;abs 0x56d0
    554a:	5e 42 3c 11 	mov.b	&0x113c,r14	
    554e:	4d 9f       	cmp.b	r15,	r13	
    5550:	02 24       	jz	$+6      	;abs 0x5556
    5552:	6e d2       	bis.b	#4,	r14	;r2 As==10
    5554:	01 3c       	jmp	$+4      	;abs 0x5558
    5556:	6e d3       	bis.b	#2,	r14	;r3 As==10
    5558:	c2 4e 3c 11 	mov.b	r14,	&0x113c	
    555c:	5f 42 3c 11 	mov.b	&0x113c,r15	
    5560:	7f f0 e7 ff 	and.b	#-25,	r15	;#0xffe7
    5564:	7f d2       	bis.b	#8,	r15	;r2 As==11
    5566:	c2 4f 3c 11 	mov.b	r15,	&0x113c	
    556a:	c2 43 3e 11 	mov.b	#0,	&0x113e	;r3 As==00
    556e:	f2 43 1c 11 	mov.b	#-1,	&0x111c	;r3 As==11
    5572:	d0 3c       	jmp	$+418    	;abs 0x5714
    5574:	4b 93       	tst.b	r11		
    5576:	ac 20       	jnz	$+346    	;abs 0x56d0
    5578:	c2 4e 02 12 	mov.b	r14,	&0x1202	
    557c:	1f 42 5a 12 	mov	&0x125a,r15	
    5580:	b0 12 ce 4a 	call	#0x4ace	
    5584:	82 4f 5a 12 	mov	r15,	&0x125a	
    5588:	f2 40 03 00 fd 11 	mov.b	#3,	&0x11fd	;#0x0003
    558e:	c2 3c       	jmp	$+390    	;abs 0x5714
    5590:	5f 42 44 15 	mov.b	&0x1544,r15	
    5594:	7f 93       	cmp.b	#-1,	r15	;r3 As==11
    5596:	9c 24       	jz	$+314    	;abs 0x56d0
    5598:	4b 93       	tst.b	r11		
    559a:	45 24       	jz	$+140    	;abs 0x5626
    559c:	49 9f       	cmp.b	r15,	r9	
    559e:	98 2c       	jc	$+306    	;abs 0x56d0
    55a0:	5f 42 6c 15 	mov.b	&0x156c,r15	
    55a4:	4f 93       	tst.b	r15		
    55a6:	02 24       	jz	$+6      	;abs 0x55ac
    55a8:	7f 53       	add.b	#-1,	r15	;r3 As==11
    55aa:	01 3c       	jmp	$+4      	;abs 0x55ae
    55ac:	6f 43       	mov.b	#2,	r15	;r3 As==10
    55ae:	4e 4f       	mov.b	r15,	r14	
    55b0:	5e 4e 6e 15 	mov.b	5486(r14),r14	;0x156e(r14)
    55b4:	8e 10       	swpb	r14		
    55b6:	4f 93       	tst.b	r15		
    55b8:	02 24       	jz	$+6      	;abs 0x55be
    55ba:	7f 53       	add.b	#-1,	r15	;r3 As==11
    55bc:	01 3c       	jmp	$+4      	;abs 0x55c0
    55be:	6f 43       	mov.b	#2,	r15	;r3 As==10
    55c0:	4f 4f       	mov.b	r15,	r15	
    55c2:	5f 4f 6e 15 	mov.b	5486(r15),r15	;0x156e(r15)
    55c6:	0f de       	bis	r14,	r15	
    55c8:	1f 92 5a 12 	cmp	&0x125a,r15	
    55cc:	81 20       	jnz	$+260    	;abs 0x56d0
    55ce:	4f 43       	clr.b	r15		
    55d0:	b0 12 7a 4d 	call	#0x4d7a	
    55d4:	f2 90 44 00 72 15 	cmp.b	#68,	&0x1572	;#0x0044
    55da:	1c 20       	jnz	$+58     	;abs 0x5614
    55dc:	5c 42 02 12 	mov.b	&0x1202,r12	
    55e0:	5e 42 48 12 	mov.b	&0x1248,r14	
    55e4:	5b 42 49 12 	mov.b	&0x1249,r11	
    55e8:	4f 4e       	mov.b	r14,	r15	
    55ea:	5f 53       	inc.b	r15		
    55ec:	7f 90 06 00 	cmp.b	#6,	r15	;#0x0006
    55f0:	02 2c       	jc	$+6      	;abs 0x55f6
    55f2:	4d 4f       	mov.b	r15,	r13	
    55f4:	01 3c       	jmp	$+4      	;abs 0x55f8
    55f6:	4d 43       	clr.b	r13		
    55f8:	4d 9b       	cmp.b	r11,	r13	
    55fa:	0c 24       	jz	$+26     	;abs 0x5614
    55fc:	4e 4e       	mov.b	r14,	r14	
    55fe:	ce 4c 4a 12 	mov.b	r12,	4682(r14);0x124a(r14)
    5602:	c2 4f 48 12 	mov.b	r15,	&0x1248	
    5606:	7f 90 06 00 	cmp.b	#6,	r15	;#0x0006
    560a:	02 28       	jnc	$+6      	;abs 0x5610
    560c:	c2 43 48 12 	mov.b	#0,	&0x1248	;r3 As==00
    5610:	b0 12 a0 54 	call	#0x54a0	
    5614:	b0 12 42 47 	call	#0x4742	
    5618:	f2 f0 fd ff 56 11 	and.b	#-3,	&0x1156	;#0xfffd
    561e:	c2 93 3a 11 	tst.b	&0x113a	
    5622:	78 24       	jz	$+242    	;abs 0x5714
    5624:	60 3c       	jmp	$+194    	;abs 0x56e6
    5626:	49 9f       	cmp.b	r15,	r9	
    5628:	42 2c       	jc	$+134    	;abs 0x56ae
    562a:	5f 42 6d 15 	mov.b	&0x156d,r15	
    562e:	5e 4f 6e 15 	mov.b	5486(r15),r14	;0x156e(r15)
    5632:	5d 42 3c 11 	mov.b	&0x113c,r13	
    5636:	4f 4d       	mov.b	r13,	r15	
    5638:	12 c3       	clrc			
    563a:	4f 10       	rrc.b	r15		
    563c:	4f 11       	rra.b	r15		
    563e:	4f 11       	rra.b	r15		
    5640:	3f f0 03 00 	and	#3,	r15	;#0x0003
    5644:	1f 93       	cmp	#1,	r15	;r3 As==01
    5646:	03 24       	jz	$+8      	;abs 0x564e
    5648:	2f 93       	cmp	#2,	r15	;r3 As==10
    564a:	1d 20       	jnz	$+60     	;abs 0x5686
    564c:	10 3c       	jmp	$+34     	;abs 0x566e
    564e:	4f 4d       	mov.b	r13,	r15	
    5650:	7f f0 e7 ff 	and.b	#-25,	r15	;#0xffe7
    5654:	7f d0 10 00 	bis.b	#16,	r15	;#0x0010
    5658:	c2 4f 3c 11 	mov.b	r15,	&0x113c	
    565c:	4e 93       	tst.b	r14		
    565e:	02 20       	jnz	$+6      	;abs 0x5664
    5660:	7b 40 05 00 	mov.b	#5,	r11	;#0x0005
    5664:	c2 4b 3e 11 	mov.b	r11,	&0x113e	
    5668:	c2 4e 1c 11 	mov.b	r14,	&0x111c	
    566c:	0c 3c       	jmp	$+26     	;abs 0x5686
    566e:	5f 42 3e 11 	mov.b	&0x113e,r15	
    5672:	7f 90 3a 00 	cmp.b	#58,	r15	;#0x003a
    5676:	07 2c       	jc	$+16     	;abs 0x5686
    5678:	4f 4f       	mov.b	r15,	r15	
    567a:	1f 52 22 11 	add	&0x1122,r15	
    567e:	cf 4e 00 00 	mov.b	r14,	0(r15)	;0x0000(r15)
    5682:	d2 53 3e 11 	inc.b	&0x113e	
    5686:	5d 42 6d 15 	mov.b	&0x156d,r13	
    568a:	4f 4d       	mov.b	r13,	r15	
    568c:	5e 4f 6e 15 	mov.b	5486(r15),r14	;0x156e(r15)
    5690:	4f 4d       	mov.b	r13,	r15	
    5692:	5f 53       	inc.b	r15		
    5694:	c2 4f 6d 15 	mov.b	r15,	&0x156d	
    5698:	7f 90 03 00 	cmp.b	#3,	r15	;#0x0003
    569c:	02 28       	jnc	$+6      	;abs 0x56a2
    569e:	c2 43 6d 15 	mov.b	#0,	&0x156d	;r3 As==00
    56a2:	1f 42 5a 12 	mov	&0x125a,r15	
    56a6:	b0 12 ce 4a 	call	#0x4ace	
    56aa:	82 4f 5a 12 	mov	r15,	&0x125a	
    56ae:	5e 42 6c 15 	mov.b	&0x156c,r14	
    56b2:	4f 4e       	mov.b	r14,	r15	
    56b4:	cf 4a 6e 15 	mov.b	r10,	5486(r15);0x156e(r15)
    56b8:	4f 4e       	mov.b	r14,	r15	
    56ba:	5f 53       	inc.b	r15		
    56bc:	c2 4f 6c 15 	mov.b	r15,	&0x156c	
    56c0:	7f 90 03 00 	cmp.b	#3,	r15	;#0x0003
    56c4:	02 28       	jnc	$+6      	;abs 0x56ca
    56c6:	c2 43 6c 15 	mov.b	#0,	&0x156c	;r3 As==00
    56ca:	d2 53 44 15 	inc.b	&0x1544	
    56ce:	22 3c       	jmp	$+70     	;abs 0x5714
    56d0:	b0 12 42 47 	call	#0x4742	
    56d4:	f2 f0 fd ff 56 11 	and.b	#-3,	&0x1156	;#0xfffd
    56da:	5f 43       	mov.b	#1,	r15	;r3 As==01
    56dc:	b0 12 7a 4d 	call	#0x4d7a	
    56e0:	c2 93 3a 11 	tst.b	&0x113a	
    56e4:	05 24       	jz	$+12     	;abs 0x56f0
    56e6:	e2 42 fd 11 	mov.b	#4,	&0x11fd	;r2 As==10
    56ea:	b0 12 f8 4d 	call	#0x4df8	
    56ee:	12 3c       	jmp	$+38     	;abs 0x5714
    56f0:	4b 93       	tst.b	r11		
    56f2:	10 24       	jz	$+34     	;abs 0x5714
    56f4:	d2 43 fd 11 	mov.b	#1,	&0x11fd	;r3 As==01
    56f8:	0d 3c       	jmp	$+28     	;abs 0x5714
    56fa:	1f 42 5a 12 	mov	&0x125a,r15	
    56fe:	b0 12 ce 4a 	call	#0x4ace	
    5702:	82 4f 5a 12 	mov	r15,	&0x125a	
    5706:	7a 90 44 00 	cmp.b	#68,	r10	;#0x0044
    570a:	02 24       	jz	$+6      	;abs 0x5710
    570c:	30 40 26 55 	br	#0x5526	
    5710:	30 40 20 55 	br	#0x5520	
    5714:	39 41       	pop	r9		
    5716:	3a 41       	pop	r10		
    5718:	3b 41       	pop	r11		
    571a:	30 41       	ret			

0000571c <ActiveMessageAddressC__ActiveMessageAddress__amAddress>:
    571c:	0b 12       	push	r11		
    571e:	b0 12 50 4b 	call	#0x4b50	
    5722:	1b 42 28 11 	mov	&0x1128,r11	
    5726:	b0 12 64 4b 	call	#0x4b64	
    572a:	0f 4b       	mov	r11,	r15	
    572c:	3b 41       	pop	r11		
    572e:	30 41       	ret			

00005730 <SerialP__ack_queue_is_empty>:
    5730:	0b 12       	push	r11		
    5732:	b0 12 50 4b 	call	#0x4b50	
    5736:	5b 43       	mov.b	#1,	r11	;r3 As==01
    5738:	d2 92 49 12 48 12 	cmp.b	&0x1249,&0x1248	
    573e:	01 24       	jz	$+4      	;abs 0x5742
    5740:	4b 43       	clr.b	r11		
    5742:	b0 12 64 4b 	call	#0x4b64	
    5746:	4f 4b       	mov.b	r11,	r15	
    5748:	3b 41       	pop	r11		
    574a:	30 41       	ret			

0000574c <CC2420CsmaP__SplitControlState__forceState>:
    574c:	0b 12       	push	r11		
    574e:	4b 4f       	mov.b	r15,	r11	
    5750:	b0 12 50 4b 	call	#0x4b50	
    5754:	c2 4b 4c 15 	mov.b	r11,	&0x154c	
    5758:	b0 12 64 4b 	call	#0x4b64	
    575c:	3b 41       	pop	r11		
    575e:	30 41       	ret			

00005760 <CC2420TransmitP__loadTXFIFO>:
    5760:	0b 12       	push	r11		
    5762:	0a 12       	push	r10		
    5764:	09 12       	push	r9		
    5766:	1b 42 0a 12 	mov	&0x120a,r11	
    576a:	5a 4b 2c 00 	mov.b	44(r11),r10	;0x002c(r11)
    576e:	4a 93       	tst.b	r10		
    5770:	02 20       	jnz	$+6      	;abs 0x5776
    5772:	7a 50 1f 00 	add.b	#31,	r10	;#0x001f
    5776:	b0 12 6a 4c 	call	#0x4c6a	
    577a:	c2 9a b7 11 	cmp.b	r10,	&0x11b7	
    577e:	07 24       	jz	$+16     	;abs 0x578e
    5780:	4e 4a       	mov.b	r10,	r14	
    5782:	3e d0 e0 80 	bis	#-32544,r14	;#0x80e0
    5786:	7f 40 15 00 	mov.b	#21,	r15	;#0x0015
    578a:	b0 12 8a 53 	call	#0x538a	
    578e:	c2 4a b7 11 	mov.b	r10,	&0x11b7	
    5792:	69 4b       	mov.b	@r11,	r9	
    5794:	b0 12 50 4b 	call	#0x4b50	
    5798:	4a 4f       	mov.b	r15,	r10	
    579a:	b0 12 e2 4b 	call	#0x4be2	
    579e:	4f 93       	tst.b	r15		
    57a0:	04 24       	jz	$+10     	;abs 0x57aa
    57a2:	4f 4a       	mov.b	r10,	r15	
    57a4:	b0 12 64 4b 	call	#0x4b64	
    57a8:	11 3c       	jmp	$+36     	;abs 0x57cc
    57aa:	4f 4a       	mov.b	r10,	r15	
    57ac:	b0 12 64 4b 	call	#0x4b64	
    57b0:	b2 40 3e 00 2a 12 	mov	#62,	&0x122a	;#0x003e
    57b6:	7f 40 3e 00 	mov.b	#62,	r15	;#0x003e
    57ba:	b0 12 d6 46 	call	#0x46d6	
    57be:	4d 49       	mov.b	r9,	r13	
    57c0:	7d 53       	add.b	#-1,	r13	;r3 As==11
    57c2:	4d 4d       	mov.b	r13,	r13	
    57c4:	0e 43       	clr	r14		
    57c6:	0f 4b       	mov	r11,	r15	
    57c8:	b0 12 4e 4e 	call	#0x4e4e	
    57cc:	39 41       	pop	r9		
    57ce:	3a 41       	pop	r10		
    57d0:	3b 41       	pop	r11		
    57d2:	30 41       	ret			

000057d4 <CC2420ControlP__RSTN__clr>:
    57d4:	b0 12 50 4b 	call	#0x4b50	
    57d8:	f2 f0 bf ff 1d 00 	and.b	#-65,	&0x001d	;#0xffbf
    57de:	b0 12 64 4b 	call	#0x4b64	
    57e2:	30 41       	ret			

000057e4 <CC2420ControlP__RSTN__set>:
    57e4:	b0 12 50 4b 	call	#0x4b50	
    57e8:	f2 d0 40 00 1d 00 	bis.b	#64,	&0x001d	;#0x0040
    57ee:	b0 12 64 4b 	call	#0x4b64	
    57f2:	30 41       	ret			

000057f4 <CC2420CsmaP__shutdown>:
    57f4:	0b 12       	push	r11		
    57f6:	21 83       	decd	r1		
    57f8:	b0 12 50 4b 	call	#0x4b50	
    57fc:	4b 4f       	mov.b	r15,	r11	
    57fe:	82 43 6c 11 	mov	#0,	&0x116c	;r3 As==00
    5802:	b0 12 d2 45 	call	#0x45d2	
    5806:	b0 12 9c 46 	call	#0x469c	
    580a:	f2 f0 fd ff 1f 00 	and.b	#-3,	&0x001f	;#0xfffd
    5810:	7f 40 03 00 	mov.b	#3,	r15	;#0x0003
    5814:	b0 12 42 4f 	call	#0x4f42	
    5818:	b0 12 34 4f 	call	#0x4f34	
    581c:	4f 4b       	mov.b	r11,	r15	
    581e:	b0 12 64 4b 	call	#0x4b64	
    5822:	b0 12 50 4b 	call	#0x4b50	
    5826:	82 43 b2 11 	mov	#0,	&0x11b2	;r3 As==00
    582a:	81 4f 00 00 	mov	r15,	0(r1)	;0x0000(r1)
    582e:	b0 12 88 48 	call	#0x4888	
    5832:	b0 12 34 4f 	call	#0x4f34	
    5836:	f2 f0 fe ff 25 00 	and.b	#-2,	&0x0025	;#0xfffe
    583c:	b0 12 a4 46 	call	#0x46a4	
    5840:	2f 41       	mov	@r1,	r15	
    5842:	b0 12 64 4b 	call	#0x4b64	
    5846:	82 43 5a 11 	mov	#0,	&0x115a	;r3 As==00
    584a:	b0 12 d4 57 	call	#0x57d4	
    584e:	b0 12 50 4b 	call	#0x4b50	
    5852:	f2 f0 df ff 1d 00 	and.b	#-33,	&0x001d	;#0xffdf
    5858:	b0 12 64 4b 	call	#0x4b64	
    585c:	b0 12 e4 57 	call	#0x57e4	
    5860:	7f 40 0d 00 	mov.b	#13,	r15	;#0x000d
    5864:	b0 12 7a 4c 	call	#0x4c7a	
    5868:	21 53       	incd	r1		
    586a:	3b 41       	pop	r11		
    586c:	30 41       	ret			

0000586e <ApplicationP__AMControl__stop>:
    586e:	0b 12       	push	r11		
    5870:	0a 12       	push	r10		
    5872:	6f 43       	mov.b	#2,	r15	;r3 As==10
    5874:	b0 12 36 4c 	call	#0x4c36	
    5878:	4b 4f       	mov.b	r15,	r11	
    587a:	4f 93       	tst.b	r15		
    587c:	08 24       	jz	$+18     	;abs 0x588e
    587e:	7f 40 03 00 	mov.b	#3,	r15	;#0x0003
    5882:	b0 12 4c 57 	call	#0x574c	
    5886:	b0 12 f4 57 	call	#0x57f4	
    588a:	4f 43       	clr.b	r15		
    588c:	1e 3c       	jmp	$+62     	;abs 0x58ca
    588e:	b0 12 36 4c 	call	#0x4c36	
    5892:	4a 4f       	mov.b	r15,	r10	
    5894:	4f 9b       	cmp.b	r11,	r15	
    5896:	14 20       	jnz	$+42     	;abs 0x58c0
    5898:	6f 42       	mov.b	#4,	r15	;r2 As==10
    589a:	b0 12 36 4c 	call	#0x4c36	
    589e:	4b 4f       	mov.b	r15,	r11	
    58a0:	4f 9a       	cmp.b	r10,	r15	
    58a2:	06 24       	jz	$+14     	;abs 0x58b0
    58a4:	7f 40 03 00 	mov.b	#3,	r15	;#0x0003
    58a8:	b0 12 4c 57 	call	#0x574c	
    58ac:	4f 4a       	mov.b	r10,	r15	
    58ae:	0d 3c       	jmp	$+28     	;abs 0x58ca
    58b0:	7f 40 03 00 	mov.b	#3,	r15	;#0x0003
    58b4:	b0 12 36 4c 	call	#0x4c36	
    58b8:	4f 9b       	cmp.b	r11,	r15	
    58ba:	05 24       	jz	$+12     	;abs 0x58c6
    58bc:	4f 4b       	mov.b	r11,	r15	
    58be:	05 3c       	jmp	$+12     	;abs 0x58ca
    58c0:	7f 40 09 00 	mov.b	#9,	r15	;#0x0009
    58c4:	02 3c       	jmp	$+6      	;abs 0x58ca
    58c6:	7f 40 05 00 	mov.b	#5,	r15	;#0x0005
    58ca:	3a 41       	pop	r10		
    58cc:	3b 41       	pop	r11		
    58ce:	30 41       	ret			
    58d0:	72 65       	addc.b	@r5+,	r2	
    58d2:	71 75       	subc.b	@r5+,	r1	
    58d4:	65 73       	subc.b	#2,	r5	;r3 As==10
    58d6:	74 20       	jnz	$+234    	;abs 0x59c0
    58d8:	6e 6f       	addc.b	@r15,	r14	
    58da:	74 20       	jnz	$+234    	;abs 0x59c4
    58dc:	66 6f       	addc.b	@r15,	r6	
    58de:	72 77       	subc.b	@r7+,	r2	
    58e0:	61 72       	subc.b	#4,	r1	;r2 As==10
    58e2:	64 65       	addc.b	@r5,	r4	
    58e4:	64 20       	jnz	$+202    	;abs 0x59ae
    58e6:	00 53       	add	#0,	r0	;r3 As==00
    58e8:	74 6f       	addc.b	@r15+,	r4	
    58ea:	70 70 69 6e 	subc.b	#28265,	r0	;#0x6e69
    58ee:	67 20       	jnz	$+208    	;abs 0x59be
    58f0:	72 61       	addc.b	@r1+,	r2	
    58f2:	64 69       	addc.b	@r9,	r4	
    58f4:	6f 20       	jnz	$+224    	;abs 0x59d4
    58f6:	61 66       	addc.b	@r6,	r1	
    58f8:	74 65       	addc.b	@r5+,	r4	
    58fa:	72 20       	jnz	$+230    	;abs 0x59e0
    58fc:	64 61       	addc.b	@r1,	r4	
    58fe:	74 61       	addc.b	@r1+,	r4	
    5900:	20 74       	subc	@r4,	r0	
    5902:	72 61       	addc.b	@r1+,	r2	
    5904:	6e 73       	subc.b	#2,	r14	;r3 As==10
    5906:	6d 69       	addc.b	@r9,	r13	
    5908:	73 73       	.word	0x7373;	????	Illegal as 2-op instr
    590a:	69 6f       	addc.b	@r15,	r9	
    590c:	6e 20       	jnz	$+222    	;abs 0x59ea
    590e:	00 53       	add	#0,	r0	;r3 As==00
    5910:	65 6e       	addc.b	@r14,	r5	
    5912:	74 20       	jnz	$+234    	;abs 0x59fc
    5914:	64 61       	addc.b	@r1,	r4	
    5916:	74 61       	addc.b	@r1+,	r4	
    5918:	20 77       	subc	@r7,	r0	
    591a:	61 73       	subc.b	#2,	r1	;r3 As==10
    591c:	20 61       	addc	@r1,	r0	
    591e:	63 6b       	.word	0x6b63;	????	Illegal as 2-op instr
    5920:	65 64       	addc.b	@r4,	r5	
    5922:	20 00       	.word	0x0020;	????	
    5924:	53 65       	.word	0x6553;	????	Illegal as 2-op instr
    5926:	6e 74       	subc.b	@r4,	r14	
    5928:	20 64       	addc	@r4,	r0	
    592a:	61 74       	subc.b	@r4,	r1	
    592c:	61 20       	jnz	$+196    	;abs 0x59f0
    592e:	6e 6f       	addc.b	@r15,	r14	
    5930:	74 20       	jnz	$+234    	;abs 0x5a1a
    5932:	61 63       	addc.b	#2,	r1	;r3 As==10
    5934:	6b 65       	addc.b	@r5,	r11	
    5936:	64 00       	.word	0x0064;	????	

00005938 <AMQueueImplP__0__Send__sendDone>:
    5938:	0b 12       	push	r11		
    593a:	0a 12       	push	r10		
    593c:	0a 4e       	mov	r14,	r10	
    593e:	4b 4d       	mov.b	r13,	r11	
    5940:	5f 93       	cmp.b	#1,	r15	;r3 As==01
    5942:	03 24       	jz	$+8      	;abs 0x594a
    5944:	6f 93       	cmp.b	#2,	r15	;r3 As==10
    5946:	2b 20       	jnz	$+88     	;abs 0x599e
    5948:	03 3c       	jmp	$+8      	;abs 0x5950
    594a:	c2 43 98 11 	mov.b	#0,	&0x1198	;r3 As==00
    594e:	21 3c       	jmp	$+68     	;abs 0x5992
    5950:	c2 43 98 11 	mov.b	#0,	&0x1198	;r3 As==00
    5954:	b0 12 6e 58 	call	#0x586e	
    5958:	3f 40 e7 58 	mov	#22759,	r15	;#0x58e7
    595c:	b0 12 60 8a 	call	#0x8a60	
    5960:	03 12       	push	#0		;r3 As==00
    5962:	30 12 0c 7e 	push	#32268		;#0x7e0c
    5966:	1d 42 94 11 	mov	&0x1194,r13	
    596a:	1e 42 96 11 	mov	&0x1196,r14	
    596e:	7f 40 06 00 	mov.b	#6,	r15	;#0x0006
    5972:	b0 12 1a 4e 	call	#0x4e1a	
    5976:	21 52       	add	#4,	r1	;r2 As==10
    5978:	ca 93 2e 00 	tst.b	46(r10)	;0x002e(r10)
    597c:	05 24       	jz	$+12     	;abs 0x5988
    597e:	3f 40 0f 59 	mov	#22799,	r15	;#0x590f
    5982:	b0 12 60 8a 	call	#0x8a60	
    5986:	05 3c       	jmp	$+12     	;abs 0x5992
    5988:	30 12 24 59 	push	#22820		;#0x5924
    598c:	b0 12 ca 85 	call	#0x85ca	
    5990:	21 53       	incd	r1		
    5992:	4b 93       	tst.b	r11		
    5994:	04 24       	jz	$+10     	;abs 0x599e
    5996:	3f 40 d0 58 	mov	#22736,	r15	;#0x58d0
    599a:	b0 12 60 8a 	call	#0x8a60	
    599e:	3a 41       	pop	r10		
    59a0:	3b 41       	pop	r11		
    59a2:	30 41       	ret			

000059a4 <TransformAlarmC__1__Counter__get>:
    59a4:	0b 12       	push	r11		
    59a6:	0a 12       	push	r10		
    59a8:	09 12       	push	r9		
    59aa:	08 12       	push	r8		
    59ac:	b0 12 50 4b 	call	#0x4b50	
    59b0:	48 4f       	mov.b	r15,	r8	
    59b2:	1a 42 14 12 	mov	&0x1214,r10	
    59b6:	1b 42 16 12 	mov	&0x1216,r11	
    59ba:	b0 12 cc 47 	call	#0x47cc	
    59be:	09 4f       	mov	r15,	r9	
    59c0:	1f 42 80 01 	mov	&0x0180,r15	
    59c4:	5f f3       	and.b	#1,	r15	;r3 As==01
    59c6:	05 24       	jz	$+12     	;abs 0x59d2
    59c8:	1a 53       	inc	r10		
    59ca:	0b 63       	adc	r11		
    59cc:	b0 12 cc 47 	call	#0x47cc	
    59d0:	09 4f       	mov	r15,	r9	
    59d2:	4f 48       	mov.b	r8,	r15	
    59d4:	b0 12 64 4b 	call	#0x4b64	
    59d8:	0f 49       	mov	r9,	r15	
    59da:	12 c3       	clrc			
    59dc:	0f 10       	rrc	r15		
    59de:	0f 11       	rra	r15		
    59e0:	0f 11       	rra	r15		
    59e2:	0f 11       	rra	r15		
    59e4:	0c 4f       	mov	r15,	r12	
    59e6:	12 c3       	clrc			
    59e8:	0c 10       	rrc	r12		
    59ea:	0d 43       	clr	r13		
    59ec:	0e 4a       	mov	r10,	r14	
    59ee:	0f 4b       	mov	r11,	r15	
    59f0:	4f ee       	xor.b	r14,	r15	
    59f2:	0f ee       	xor	r14,	r15	
    59f4:	8f 10       	swpb	r15		
    59f6:	7e f3       	and.b	#-1,	r14	;r3 As==11
    59f8:	8e 10       	swpb	r14		
    59fa:	0e 5e       	rla	r14		
    59fc:	0f 6f       	rlc	r15		
    59fe:	0e 5e       	rla	r14		
    5a00:	0f 6f       	rlc	r15		
    5a02:	0e 5e       	rla	r14		
    5a04:	0f 6f       	rlc	r15		
    5a06:	0e dc       	bis	r12,	r14	
    5a08:	0f dd       	bis	r13,	r15	
    5a0a:	38 41       	pop	r8		
    5a0c:	39 41       	pop	r9		
    5a0e:	3a 41       	pop	r10		
    5a10:	3b 41       	pop	r11		
    5a12:	30 41       	ret			

00005a14 <TransformAlarmC__1__set_alarm>:
    5a14:	0b 12       	push	r11		
    5a16:	0a 12       	push	r10		
    5a18:	09 12       	push	r9		
    5a1a:	b0 12 a4 59 	call	#0x59a4	
    5a1e:	09 4e       	mov	r14,	r9	
    5a20:	0a 4f       	mov	r15,	r10	
    5a22:	1b 42 7a 11 	mov	&0x117a,r11	
    5a26:	1c 42 7c 11 	mov	&0x117c,r12	
    5a2a:	0d 4b       	mov	r11,	r13	
    5a2c:	0e 4c       	mov	r12,	r14	
    5a2e:	1d 52 ba 11 	add	&0x11ba,r13	
    5a32:	1e 62 bc 11 	addc	&0x11bc,r14	
    5a36:	0a 9c       	cmp	r12,	r10	
    5a38:	0b 28       	jnc	$+24     	;abs 0x5a50
    5a3a:	0a 9c       	cmp	r12,	r10	
    5a3c:	02 20       	jnz	$+6      	;abs 0x5a42
    5a3e:	09 9b       	cmp	r11,	r9	
    5a40:	07 28       	jnc	$+16     	;abs 0x5a50
    5a42:	0e 9c       	cmp	r12,	r14	
    5a44:	11 28       	jnc	$+36     	;abs 0x5a68
    5a46:	0e 9c       	cmp	r12,	r14	
    5a48:	09 20       	jnz	$+20     	;abs 0x5a5c
    5a4a:	0d 9b       	cmp	r11,	r13	
    5a4c:	0d 28       	jnc	$+28     	;abs 0x5a68
    5a4e:	06 3c       	jmp	$+14     	;abs 0x5a5c
    5a50:	0e 9c       	cmp	r12,	r14	
    5a52:	04 28       	jnc	$+10     	;abs 0x5a5c
    5a54:	0c 9e       	cmp	r14,	r12	
    5a56:	27 28       	jnc	$+80     	;abs 0x5aa6
    5a58:	0d 9b       	cmp	r11,	r13	
    5a5a:	25 2c       	jc	$+76     	;abs 0x5aa6
    5a5c:	0a 9e       	cmp	r14,	r10	
    5a5e:	04 28       	jnc	$+10     	;abs 0x5a68
    5a60:	0e 9a       	cmp	r10,	r14	
    5a62:	21 28       	jnc	$+68     	;abs 0x5aa6
    5a64:	09 9d       	cmp	r13,	r9	
    5a66:	1f 2c       	jc	$+64     	;abs 0x5aa6
    5a68:	0b 4d       	mov	r13,	r11	
    5a6a:	0c 4e       	mov	r14,	r12	
    5a6c:	0b 89       	sub	r9,	r11	
    5a6e:	0c 7a       	subc	r10,	r12	
    5a70:	0c 93       	tst	r12		
    5a72:	03 20       	jnz	$+8      	;abs 0x5a7a
    5a74:	3b 90 01 04 	cmp	#1025,	r11	;#0x0401
    5a78:	18 28       	jnc	$+50     	;abs 0x5aaa
    5a7a:	0e 49       	mov	r9,	r14	
    5a7c:	0f 4a       	mov	r10,	r15	
    5a7e:	3e 50 00 04 	add	#1024,	r14	;#0x0400
    5a82:	0f 63       	adc	r15		
    5a84:	82 4e 7a 11 	mov	r14,	&0x117a	
    5a88:	82 4f 7c 11 	mov	r15,	&0x117c	
    5a8c:	0e 4b       	mov	r11,	r14	
    5a8e:	0f 4c       	mov	r12,	r15	
    5a90:	3e 50 00 fc 	add	#-1024,	r14	;#0xfc00
    5a94:	3f 63       	addc	#-1,	r15	;r3 As==11
    5a96:	82 4e ba 11 	mov	r14,	&0x11ba	
    5a9a:	82 4f bc 11 	mov	r15,	&0x11bc	
    5a9e:	3b 40 00 04 	mov	#1024,	r11	;#0x0400
    5aa2:	0c 43       	clr	r12		
    5aa4:	0a 3c       	jmp	$+22     	;abs 0x5aba
    5aa6:	0b 43       	clr	r11		
    5aa8:	0c 43       	clr	r12		
    5aaa:	82 4d 7a 11 	mov	r13,	&0x117a	
    5aae:	82 4e 7c 11 	mov	r14,	&0x117c	
    5ab2:	82 43 ba 11 	mov	#0,	&0x11ba	;r3 As==00
    5ab6:	82 43 bc 11 	mov	#0,	&0x11bc	;r3 As==00
    5aba:	0b 5b       	rla	r11		
    5abc:	0b 5b       	rla	r11		
    5abe:	0b 5b       	rla	r11		
    5ac0:	0b 5b       	rla	r11		
    5ac2:	0b 5b       	rla	r11		
    5ac4:	b0 12 cc 47 	call	#0x47cc	
    5ac8:	09 59       	rla	r9		
    5aca:	09 59       	rla	r9		
    5acc:	09 59       	rla	r9		
    5ace:	09 59       	rla	r9		
    5ad0:	09 59       	rla	r9		
    5ad2:	0e 4f       	mov	r15,	r14	
    5ad4:	0e 89       	sub	r9,	r14	
    5ad6:	0e 9b       	cmp	r11,	r14	
    5ad8:	04 2c       	jc	$+10     	;abs 0x5ae2
    5ada:	0b 8e       	sub	r14,	r11	
    5adc:	3b 90 03 00 	cmp	#3,	r11	;#0x0003
    5ae0:	06 2c       	jc	$+14     	;abs 0x5aee
    5ae2:	b0 12 cc 47 	call	#0x47cc	
    5ae6:	2f 53       	incd	r15		
    5ae8:	82 4f 96 01 	mov	r15,	&0x0196	
    5aec:	03 3c       	jmp	$+8      	;abs 0x5af4
    5aee:	0b 5f       	add	r15,	r11	
    5af0:	82 4b 96 01 	mov	r11,	&0x0196	
    5af4:	b2 f0 fe ff 86 01 	and	#-2,	&0x0186	;#0xfffe
    5afa:	b2 d0 10 00 86 01 	bis	#16,	&0x0186	;#0x0010
    5b00:	39 41       	pop	r9		
    5b02:	3a 41       	pop	r10		
    5b04:	3b 41       	pop	r11		
    5b06:	30 41       	ret			

00005b08 <PacketLinkP__SendState__getState>:
    5b08:	0b 12       	push	r11		
    5b0a:	b0 12 50 4b 	call	#0x4b50	
    5b0e:	5b 42 4a 15 	mov.b	&0x154a,r11	
    5b12:	b0 12 64 4b 	call	#0x4b64	
    5b16:	4f 4b       	mov.b	r11,	r15	
    5b18:	3b 41       	pop	r11		
    5b1a:	30 41       	ret			

00005b1c <VirtualizeTimerC__1__fireTimers>:
    5b1c:	e2 b3 34 13 	bit.b	#2,	&0x1334	;r3 As==10
    5b20:	0f 24       	jz	$+32     	;abs 0x5b40
    5b22:	0c 4e       	mov	r14,	r12	
    5b24:	0d 4f       	mov	r15,	r13	
    5b26:	1c 82 2c 13 	sub	&0x132c,r12	
    5b2a:	1d 72 2e 13 	subc	&0x132e,r13	
    5b2e:	1d 92 32 13 	cmp	&0x1332,r13	
    5b32:	06 28       	jnc	$+14     	;abs 0x5b40
    5b34:	82 9d 32 13 	cmp	r13,	&0x1332	
    5b38:	15 28       	jnc	$+44     	;abs 0x5b64
    5b3a:	1c 92 30 13 	cmp	&0x1330,r12	
    5b3e:	12 2c       	jc	$+38     	;abs 0x5b64
    5b40:	e2 b3 3e 13 	bit.b	#2,	&0x133e	;r3 As==10
    5b44:	2e 24       	jz	$+94     	;abs 0x5ba2
    5b46:	1e 82 36 13 	sub	&0x1336,r14	
    5b4a:	1f 72 38 13 	subc	&0x1338,r15	
    5b4e:	1f 92 3c 13 	cmp	&0x133c,r15	
    5b52:	27 28       	jnc	$+80     	;abs 0x5ba2
    5b54:	1f 92 3c 13 	cmp	&0x133c,r15	
    5b58:	03 20       	jnz	$+8      	;abs 0x5b60
    5b5a:	1e 92 3a 13 	cmp	&0x133a,r14	
    5b5e:	21 28       	jnc	$+68     	;abs 0x5ba2
    5b60:	1d 43       	mov	#1,	r13	;r3 As==01
    5b62:	01 3c       	jmp	$+4      	;abs 0x5b66
    5b64:	0d 43       	clr	r13		
    5b66:	0f 4d       	mov	r13,	r15	
    5b68:	0f 5f       	rla	r15		
    5b6a:	0f 5f       	rla	r15		
    5b6c:	0f 5d       	add	r13,	r15	
    5b6e:	0f 5f       	rla	r15		
    5b70:	0e 4f       	mov	r15,	r14	
    5b72:	3e 50 2c 13 	add	#4908,	r14	;#0x132c
    5b76:	de b3 08 00 	bit.b	#1,	8(r14)	;r3 As==01, 0x0008(r14)
    5b7a:	04 24       	jz	$+10     	;abs 0x5b84
    5b7c:	ff f0 fd ff 34 13 	and.b	#-3,	4916(r15);#0xfffd, 0x1334(r15)
    5b82:	06 3c       	jmp	$+14     	;abs 0x5b90
    5b84:	9e 5e 04 00 00 00 	add	4(r14),	0(r14)	;0x0004(r14), 0x0000(r14)
    5b8a:	9e 6e 06 00 02 00 	addc	6(r14),	2(r14)	;0x0006(r14), 0x0002(r14)
    5b90:	5d 93       	cmp.b	#1,	r13	;r3 As==01
    5b92:	07 20       	jnz	$+16     	;abs 0x5ba2
    5b94:	b0 12 08 5b 	call	#0x5b08	
    5b98:	5f 93       	cmp.b	#1,	r15	;r3 As==01
    5b9a:	03 20       	jnz	$+8      	;abs 0x5ba2
    5b9c:	7f 52       	add.b	#8,	r15	;r2 As==11
    5b9e:	b0 12 7a 4c 	call	#0x4c7a	
    5ba2:	7f 40 0b 00 	mov.b	#11,	r15	;#0x000b
    5ba6:	b0 12 7a 4c 	call	#0x4c7a	
    5baa:	30 41       	ret			

00005bac <CC2420ControlP__writeFsctrl>:
    5bac:	0b 12       	push	r11		
    5bae:	b0 12 50 4b 	call	#0x4b50	
    5bb2:	5b 42 67 15 	mov.b	&0x1567,r11	
    5bb6:	b0 12 64 4b 	call	#0x4b64	
    5bba:	0e 4b       	mov	r11,	r14	
    5bbc:	0e 5e       	rla	r14		
    5bbe:	0e 5b       	add	r11,	r14	
    5bc0:	0e 5b       	add	r11,	r14	
    5bc2:	0e 5b       	add	r11,	r14	
    5bc4:	3e 50 2e 01 	add	#302,	r14	;#0x012e
    5bc8:	3e d0 00 40 	bis	#16384,	r14	;#0x4000
    5bcc:	7f 40 18 00 	mov.b	#24,	r15	;#0x0018
    5bd0:	b0 12 8a 53 	call	#0x538a	
    5bd4:	3b 41       	pop	r11		
    5bd6:	30 41       	ret			

00005bd8 <CC2420ControlP__writeMdmctrl0>:
    5bd8:	0b 12       	push	r11		
    5bda:	b0 12 50 4b 	call	#0x4b50	
    5bde:	4b 4f       	mov.b	r15,	r11	
    5be0:	c2 93 b8 11 	tst.b	&0x11b8	
    5be4:	04 24       	jz	$+10     	;abs 0x5bee
    5be6:	1e 43       	mov	#1,	r14	;r3 As==01
    5be8:	c2 93 24 16 	tst.b	&0x1624	
    5bec:	01 20       	jnz	$+4      	;abs 0x5bf0
    5bee:	0e 43       	clr	r14		
    5bf0:	3e f0 ff 00 	and	#255,	r14	;#0x00ff
    5bf4:	8e 10       	swpb	r14		
    5bf6:	0e 5e       	rla	r14		
    5bf8:	0e 5e       	rla	r14		
    5bfa:	0e 5e       	rla	r14		
    5bfc:	c2 93 07 12 	tst.b	&0x1207	
    5c00:	04 24       	jz	$+10     	;abs 0x5c0a
    5c02:	1d 43       	mov	#1,	r13	;r3 As==01
    5c04:	c2 93 58 15 	tst.b	&0x1558	
    5c08:	01 20       	jnz	$+4      	;abs 0x5c0c
    5c0a:	0d 43       	clr	r13		
    5c0c:	3e d0 e2 22 	bis	#8930,	r14	;#0x22e2
    5c10:	0d 5d       	rla	r13		
    5c12:	0d 5d       	rla	r13		
    5c14:	0d 5d       	rla	r13		
    5c16:	0d 5d       	rla	r13		
    5c18:	0e dd       	bis	r13,	r14	
    5c1a:	7f 40 11 00 	mov.b	#17,	r15	;#0x0011
    5c1e:	b0 12 8a 53 	call	#0x538a	
    5c22:	4f 4b       	mov.b	r11,	r15	
    5c24:	b0 12 64 4b 	call	#0x4b64	
    5c28:	3b 41       	pop	r11		
    5c2a:	30 41       	ret			

00005c2c <Msp430UartP__0__UsartResource__isOwner.clone.168>:
    5c2c:	b0 12 50 4b 	call	#0x4b50	
    5c30:	4e 4f       	mov.b	r15,	r14	
    5c32:	c2 93 12 11 	tst.b	&0x1112	
    5c36:	08 20       	jnz	$+18     	;abs 0x5c48
    5c38:	f2 90 03 00 38 11 	cmp.b	#3,	&0x1138	;#0x0003
    5c3e:	04 20       	jnz	$+10     	;abs 0x5c48
    5c40:	b0 12 64 4b 	call	#0x4b64	
    5c44:	5f 43       	mov.b	#1,	r15	;r3 As==01
    5c46:	30 41       	ret			
    5c48:	4f 4e       	mov.b	r14,	r15	
    5c4a:	b0 12 64 4b 	call	#0x4b64	
    5c4e:	4f 43       	clr.b	r15		
    5c50:	30 41       	ret			

00005c52 <HdlcTranslateC__UartStream__send.clone.169>:
    5c52:	b0 12 2c 5c 	call	#0x5c2c	
    5c56:	4f 93       	tst.b	r15		
    5c58:	11 24       	jz	$+36     	;abs 0x5c7c
    5c5a:	82 93 22 16 	tst	&0x1622	
    5c5e:	10 20       	jnz	$+34     	;abs 0x5c80
    5c60:	b2 40 b5 11 22 16 	mov	#4533,	&0x1622	;#0x11b5
    5c66:	92 43 46 15 	mov	#1,	&0x1546	;r3 As==01
    5c6a:	c2 43 78 11 	mov.b	#0,	&0x1178	;r3 As==00
    5c6e:	92 43 08 12 	mov	#1,	&0x1208	;r3 As==01
    5c72:	d2 42 b5 11 7f 00 	mov.b	&0x11b5,&0x007f	
    5c78:	4f 43       	clr.b	r15		
    5c7a:	30 41       	ret			
    5c7c:	5f 43       	mov.b	#1,	r15	;r3 As==01
    5c7e:	30 41       	ret			
    5c80:	7f 40 05 00 	mov.b	#5,	r15	;#0x0005
    5c84:	30 41       	ret			

00005c86 <SerialP__SerialFrameComm__putDelimiter>:
    5c86:	b0 12 50 4b 	call	#0x4b50	
    5c8a:	f2 f0 fe ff 56 11 	and.b	#-2,	&0x1156	;#0xfffe
    5c90:	f2 40 7e 00 b5 11 	mov.b	#126,	&0x11b5	;#0x007e
    5c96:	b0 12 64 4b 	call	#0x4b64	
    5c9a:	b0 12 52 5c 	call	#0x5c52	
    5c9e:	30 41       	ret			

00005ca0 <SerialP__SerialFrameComm__putData>:
    5ca0:	4e 4f       	mov.b	r15,	r14	
    5ca2:	7e 50 83 ff 	add.b	#-125,	r14	;#0xff83
    5ca6:	6e 93       	cmp.b	#2,	r14	;r3 As==10
    5ca8:	0a 2c       	jc	$+22     	;abs 0x5cbe
    5caa:	d2 d3 56 11 	bis.b	#1,	&0x1156	;r3 As==01
    5cae:	7f e0 20 00 	xor.b	#32,	r15	;#0x0020
    5cb2:	c2 4f 43 15 	mov.b	r15,	&0x1543	
    5cb6:	f2 40 7d 00 b5 11 	mov.b	#125,	&0x11b5	;#0x007d
    5cbc:	02 3c       	jmp	$+6      	;abs 0x5cc2
    5cbe:	c2 4f b5 11 	mov.b	r15,	&0x11b5	
    5cc2:	b0 12 52 5c 	call	#0x5c52	
    5cc6:	30 41       	ret			

00005cc8 <Msp430UartP__0__UartStream__sendDone.clone.160.clone.165>:
    5cc8:	0b 12       	push	r11		
    5cca:	0a 12       	push	r10		
    5ccc:	09 12       	push	r9		
    5cce:	d2 b3 56 11 	bit.b	#1,	&0x1156	;r3 As==01
    5cd2:	09 24       	jz	$+20     	;abs 0x5ce6
    5cd4:	f2 f0 fe ff 56 11 	and.b	#-2,	&0x1156	;#0xfffe
    5cda:	d2 42 43 15 b5 11 	mov.b	&0x1543,&0x11b5	
    5ce0:	b0 12 52 5c 	call	#0x5c52	
    5ce4:	8f 3c       	jmp	$+288    	;abs 0x5e04
    5ce6:	5f 42 42 15 	mov.b	&0x1542,r15	
    5cea:	7f 53       	add.b	#-1,	r15	;r3 As==11
    5cec:	7f 92       	cmp.b	#8,	r15	;r2 As==11
    5cee:	85 2c       	jc	$+268    	;abs 0x5dfa
    5cf0:	4f 4f       	mov.b	r15,	r15	
    5cf2:	0f 5f       	rla	r15		
    5cf4:	10 4f f8 5c 	br	23800(r15)	;0x5cf8(r15)
    5cf8:	08 5d       	add	r13,	r8	
    5cfa:	1e 5d 40 5d 	add	23872(r13),r14	;0x5d40(r13)
    5cfe:	bc 5d ce 5d 	add	@r13+,	24014(r12);0x5dce(r12)
    5d02:	e2 5d f0 5d 	add.b	@r13,	&0x5df0	
    5d06:	00 5e       	add	r14,	r0	
    5d08:	5f 42 21 12 	mov.b	&0x1221,r15	
    5d0c:	b0 12 a0 5c 	call	#0x5ca0	
    5d10:	4b 4f       	mov.b	r15,	r11	
    5d12:	f2 40 03 00 42 15 	mov.b	#3,	&0x1542	;#0x0003
    5d18:	5e 42 21 12 	mov.b	&0x1221,r14	
    5d1c:	0a 3c       	jmp	$+22     	;abs 0x5d32
    5d1e:	5f 42 d4 15 	mov.b	&0x15d4,r15	
    5d22:	b0 12 a0 5c 	call	#0x5ca0	
    5d26:	4b 4f       	mov.b	r15,	r11	
    5d28:	f2 40 03 00 42 15 	mov.b	#3,	&0x1542	;#0x0003
    5d2e:	5e 42 d4 15 	mov.b	&0x15d4,r14	
    5d32:	1f 42 2c 16 	mov	&0x162c,r15	
    5d36:	b0 12 ce 4a 	call	#0x4ace	
    5d3a:	82 4f 2c 16 	mov	r15,	&0x162c	
    5d3e:	5b 3c       	jmp	$+184    	;abs 0x5df6
    5d40:	5f 42 5c 12 	mov.b	&0x125c,r15	
    5d44:	0f 5f       	rla	r15		
    5d46:	3f 50 2e 12 	add	#4654,	r15	;#0x122e
    5d4a:	5f 4f 01 00 	mov.b	1(r15),	r15	;0x0001(r15)
    5d4e:	b0 12 a0 5c 	call	#0x5ca0	
    5d52:	4b 4f       	mov.b	r15,	r11	
    5d54:	59 42 5c 12 	mov.b	&0x125c,r9	
    5d58:	4a 49       	mov.b	r9,	r10	
    5d5a:	0f 4a       	mov	r10,	r15	
    5d5c:	0f 5f       	rla	r15		
    5d5e:	3f 50 2e 12 	add	#4654,	r15	;#0x122e
    5d62:	5e 4f 01 00 	mov.b	1(r15),	r14	;0x0001(r15)
    5d66:	1f 42 2c 16 	mov	&0x162c,r15	
    5d6a:	b0 12 ce 4a 	call	#0x4ace	
    5d6e:	82 4f 2c 16 	mov	r15,	&0x162c	
    5d72:	5d 42 1a 12 	mov.b	&0x121a,r13	
    5d76:	5d 53       	inc.b	r13		
    5d78:	c2 4d 1a 12 	mov.b	r13,	&0x121a	
    5d7c:	59 93       	cmp.b	#1,	r9	;r3 As==01
    5d7e:	1b 20       	jnz	$+56     	;abs 0x5db6
    5d80:	5e 42 46 11 	mov.b	&0x1146,r14	
    5d84:	4f 4e       	mov.b	r14,	r15	
    5d86:	1f 52 40 11 	add	&0x1140,r15	
    5d8a:	6f 4f       	mov.b	@r15,	r15	
    5d8c:	5e 53       	inc.b	r14		
    5d8e:	c2 4e 46 11 	mov.b	r14,	&0x1146	
    5d92:	c2 9e 44 11 	cmp.b	r14,	&0x1144	
    5d96:	03 2c       	jc	$+8      	;abs 0x5d9e
    5d98:	e2 43 30 12 	mov.b	#2,	&0x1230	;r3 As==10
    5d9c:	4f 43       	clr.b	r15		
    5d9e:	0e 4a       	mov	r10,	r14	
    5da0:	0e 5e       	rla	r14		
    5da2:	3e 50 2e 12 	add	#4654,	r14	;#0x122e
    5da6:	ee 93 00 00 	cmp.b	#2,	0(r14)	;r3 As==10, 0x0000(r14)
    5daa:	05 24       	jz	$+12     	;abs 0x5db6
    5dac:	7d 93       	cmp.b	#-1,	r13	;r3 As==11
    5dae:	03 24       	jz	$+8      	;abs 0x5db6
    5db0:	ce 4f 01 00 	mov.b	r15,	1(r14)	;0x0001(r14)
    5db4:	20 3c       	jmp	$+66     	;abs 0x5df6
    5db6:	e2 42 42 15 	mov.b	#4,	&0x1542	;r2 As==10
    5dba:	1d 3c       	jmp	$+60     	;abs 0x5df6
    5dbc:	5f 42 2c 16 	mov.b	&0x162c,r15	
    5dc0:	b0 12 a0 5c 	call	#0x5ca0	
    5dc4:	4b 4f       	mov.b	r15,	r11	
    5dc6:	f2 40 05 00 42 15 	mov.b	#5,	&0x1542	;#0x0005
    5dcc:	14 3c       	jmp	$+42     	;abs 0x5df6
    5dce:	1f 42 2c 16 	mov	&0x162c,r15	
    5dd2:	8f 10       	swpb	r15		
    5dd4:	b0 12 a0 5c 	call	#0x5ca0	
    5dd8:	4b 4f       	mov.b	r15,	r11	
    5dda:	f2 40 06 00 42 15 	mov.b	#6,	&0x1542	;#0x0006
    5de0:	0a 3c       	jmp	$+22     	;abs 0x5df6
    5de2:	b0 12 86 5c 	call	#0x5c86	
    5de6:	4b 4f       	mov.b	r15,	r11	
    5de8:	f2 40 07 00 42 15 	mov.b	#7,	&0x1542	;#0x0007
    5dee:	03 3c       	jmp	$+8      	;abs 0x5df6
    5df0:	f2 42 42 15 	mov.b	#8,	&0x1542	;r2 As==11
    5df4:	05 3c       	jmp	$+12     	;abs 0x5e00
    5df6:	4b 93       	tst.b	r11		
    5df8:	05 24       	jz	$+12     	;abs 0x5e04
    5dfa:	f2 40 09 00 42 15 	mov.b	#9,	&0x1542	;#0x0009
    5e00:	b0 12 a0 54 	call	#0x54a0	
    5e04:	39 41       	pop	r9		
    5e06:	3a 41       	pop	r10		
    5e08:	3b 41       	pop	r11		
    5e0a:	30 41       	ret			

00005e0c <StateImplP__State__requestState.clone.170>:
    5e0c:	0b 12       	push	r11		
    5e0e:	4b 4f       	mov.b	r15,	r11	
    5e10:	b0 12 50 4b 	call	#0x4b50	
    5e14:	4e 4b       	mov.b	r11,	r14	
    5e16:	3e 50 4a 15 	add	#5450,	r14	;#0x154a
    5e1a:	ce 93 00 00 	tst.b	0(r14)		;0x0000(r14)
    5e1e:	04 20       	jnz	$+10     	;abs 0x5e28
    5e20:	de 43 00 00 	mov.b	#1,	0(r14)	;r3 As==01, 0x0000(r14)
    5e24:	4b 43       	clr.b	r11		
    5e26:	01 3c       	jmp	$+4      	;abs 0x5e2a
    5e28:	5b 43       	mov.b	#1,	r11	;r3 As==01
    5e2a:	b0 12 64 4b 	call	#0x4b64	
    5e2e:	4f 4b       	mov.b	r11,	r15	
    5e30:	3b 41       	pop	r11		
    5e32:	30 41       	ret			

00005e34 <CC2420CsmaP__SplitControl__start>:
    5e34:	0b 12       	push	r11		
    5e36:	6f 43       	mov.b	#2,	r15	;r3 As==10
    5e38:	b0 12 0c 5e 	call	#0x5e0c	
    5e3c:	4b 4f       	mov.b	r15,	r11	
    5e3e:	4f 93       	tst.b	r15		
    5e40:	1a 20       	jnz	$+54     	;abs 0x5e76
    5e42:	b0 12 50 4b 	call	#0x4b50	
    5e46:	82 93 5a 11 	tst	&0x115a	
    5e4a:	03 24       	jz	$+8      	;abs 0x5e52
    5e4c:	b0 12 64 4b 	call	#0x4b64	
    5e50:	10 3c       	jmp	$+34     	;abs 0x5e72
    5e52:	92 43 5a 11 	mov	#1,	&0x115a	;r3 As==01
    5e56:	b0 12 64 4b 	call	#0x4b64	
    5e5a:	b0 12 50 4b 	call	#0x4b50	
    5e5e:	f2 d0 20 00 1d 00 	bis.b	#32,	&0x001d	;#0x0020
    5e64:	b0 12 64 4b 	call	#0x4b64	
    5e68:	3e 40 14 00 	mov	#20,	r14	;#0x0014
    5e6c:	0f 43       	clr	r15		
    5e6e:	b0 12 7c 52 	call	#0x527c	
    5e72:	4f 4b       	mov.b	r11,	r15	
    5e74:	11 3c       	jmp	$+36     	;abs 0x5e98
    5e76:	6f 43       	mov.b	#2,	r15	;r3 As==10
    5e78:	b0 12 36 4c 	call	#0x4c36	
    5e7c:	4b 4f       	mov.b	r15,	r11	
    5e7e:	4f 93       	tst.b	r15		
    5e80:	06 20       	jnz	$+14     	;abs 0x5e8e
    5e82:	5f 43       	mov.b	#1,	r15	;r3 As==01
    5e84:	b0 12 36 4c 	call	#0x4c36	
    5e88:	4f 9b       	cmp.b	r11,	r15	
    5e8a:	04 24       	jz	$+10     	;abs 0x5e94
    5e8c:	f2 3f       	jmp	$-26     	;abs 0x5e72
    5e8e:	7f 40 09 00 	mov.b	#9,	r15	;#0x0009
    5e92:	02 3c       	jmp	$+6      	;abs 0x5e98
    5e94:	7f 40 05 00 	mov.b	#5,	r15	;#0x0005
    5e98:	3b 41       	pop	r11		
    5e9a:	30 41       	ret			

00005e9c <CC2420SpiP__Resource__request>:
    5e9c:	0b 12       	push	r11		
    5e9e:	0a 12       	push	r10		
    5ea0:	09 12       	push	r9		
    5ea2:	4b 4f       	mov.b	r15,	r11	
    5ea4:	b0 12 50 4b 	call	#0x4b50	
    5ea8:	49 4f       	mov.b	r15,	r9	
    5eaa:	5f 43       	mov.b	#1,	r15	;r3 As==01
    5eac:	b0 12 0c 5e 	call	#0x5e0c	
    5eb0:	4a 4f       	mov.b	r15,	r10	
    5eb2:	4f 93       	tst.b	r15		
    5eb4:	2b 20       	jnz	$+88     	;abs 0x5f0c
    5eb6:	c2 4b 24 11 	mov.b	r11,	&0x1124	
    5eba:	b0 12 66 46 	call	#0x4666	
    5ebe:	4f 9a       	cmp.b	r10,	r15	
    5ec0:	05 24       	jz	$+12     	;abs 0x5ecc
    5ec2:	7f 40 11 00 	mov.b	#17,	r15	;#0x0011
    5ec6:	b0 12 7a 4c 	call	#0x4c7a	
    5eca:	29 3c       	jmp	$+84     	;abs 0x5f1e
    5ecc:	c2 9f 5e 11 	cmp.b	r15,	&0x115e	
    5ed0:	07 20       	jnz	$+16     	;abs 0x5ee0
    5ed2:	d2 43 5e 11 	mov.b	#1,	&0x115e	;r3 As==01
    5ed6:	c2 4f 06 12 	mov.b	r15,	&0x1206	
    5eda:	b0 12 44 4d 	call	#0x4d44	
    5ede:	1f 3c       	jmp	$+64     	;abs 0x5f1e
    5ee0:	c2 9f 06 12 	cmp.b	r15,	&0x1206	
    5ee4:	1c 24       	jz	$+58     	;abs 0x5f1e
    5ee6:	f2 93 dd 15 	cmp.b	#-1,	&0x15dd	;r3 As==11
    5eea:	19 20       	jnz	$+52     	;abs 0x5f1e
    5eec:	c2 9f 26 11 	cmp.b	r15,	&0x1126	
    5ef0:	16 24       	jz	$+46     	;abs 0x5f1e
    5ef2:	f2 93 25 11 	cmp.b	#-1,	&0x1125	;r3 As==11
    5ef6:	03 20       	jnz	$+8      	;abs 0x5efe
    5ef8:	c2 4f 25 11 	mov.b	r15,	&0x1125	
    5efc:	04 3c       	jmp	$+10     	;abs 0x5f06
    5efe:	5d 42 26 11 	mov.b	&0x1126,r13	
    5f02:	cd 4f dd 15 	mov.b	r15,	5597(r13);0x15dd(r13)
    5f06:	c2 43 26 11 	mov.b	#0,	&0x1126	;r3 As==00
    5f0a:	09 3c       	jmp	$+20     	;abs 0x5f1e
    5f0c:	1e 43       	mov	#1,	r14	;r3 As==01
    5f0e:	4d 4b       	mov.b	r11,	r13	
    5f10:	0d 93       	tst	r13		
    5f12:	03 24       	jz	$+8      	;abs 0x5f1a
    5f14:	0e 5e       	rla	r14		
    5f16:	1d 83       	dec	r13		
    5f18:	fd 23       	jnz	$-4      	;abs 0x5f14
    5f1a:	c2 de 5c 11 	bis.b	r14,	&0x115c	
    5f1e:	4f 49       	mov.b	r9,	r15	
    5f20:	b0 12 64 4b 	call	#0x4b64	
    5f24:	4f 43       	clr.b	r15		
    5f26:	39 41       	pop	r9		
    5f28:	3a 41       	pop	r10		
    5f2a:	3b 41       	pop	r11		
    5f2c:	30 41       	ret			

00005f2e <ArbiterP__1__ResourceConfigure__configure>:
    5f2e:	0b 12       	push	r11		
    5f30:	0a 12       	push	r10		
    5f32:	4b 4f       	mov.b	r15,	r11	
    5f34:	4f 93       	tst.b	r15		
    5f36:	3c 20       	jnz	$+122    	;abs 0x5fb0
    5f38:	b0 12 50 4b 	call	#0x4b50	
    5f3c:	4a 4f       	mov.b	r15,	r10	
    5f3e:	5f 43       	mov.b	#1,	r15	;r3 As==01
    5f40:	b0 12 ea 45 	call	#0x45ea	
    5f44:	f2 f0 da ff 70 00 	and.b	#-38,	&0x0070	;#0xffda
    5f4a:	5f 43       	mov.b	#1,	r15	;r3 As==01
    5f4c:	b0 12 ea 45 	call	#0x45ea	
    5f50:	f2 f0 3f 00 04 00 	and.b	#63,	&0x0004	;#0x003f
    5f56:	f2 f0 ef ff 1b 00 	and.b	#-17,	&0x001b	;#0xffef
    5f5c:	f2 f0 df ff 1b 00 	and.b	#-33,	&0x001b	;#0xffdf
    5f62:	5f 42 04 11 	mov.b	&0x1104,r15	
    5f66:	7f d0 05 00 	bis.b	#5,	r15	;#0x0005
    5f6a:	c2 4f 70 00 	mov.b	r15,	&0x0070	
    5f6e:	d2 42 05 11 71 00 	mov.b	&0x1105,&0x0071	
    5f74:	1f 42 02 11 	mov	&0x1102,r15	
    5f78:	c2 4f 74 00 	mov.b	r15,	&0x0074	
    5f7c:	8f 10       	swpb	r15		
    5f7e:	c2 4f 75 00 	mov.b	r15,	&0x0075	
    5f82:	c2 4b 73 00 	mov.b	r11,	&0x0073	
    5f86:	e2 d3 1b 00 	bis.b	#2,	&0x001b	;r3 As==10
    5f8a:	e2 d2 1b 00 	bis.b	#4,	&0x001b	;r2 As==10
    5f8e:	f2 d2 1b 00 	bis.b	#8,	&0x001b	;r2 As==11
    5f92:	f2 d0 40 00 04 00 	bis.b	#64,	&0x0004	;#0x0040
    5f98:	4f 4b       	mov.b	r11,	r15	
    5f9a:	b0 12 ea 45 	call	#0x45ea	
    5f9e:	f2 f0 3f 00 02 00 	and.b	#63,	&0x0002	;#0x003f
    5fa4:	f2 f0 3f 00 00 00 	and.b	#63,	&0x0000	;#0x003f
    5faa:	4f 4a       	mov.b	r10,	r15	
    5fac:	b0 12 64 4b 	call	#0x4b64	
    5fb0:	3a 41       	pop	r10		
    5fb2:	3b 41       	pop	r11		
    5fb4:	30 41       	ret			

00005fb6 <CC2420SpiP__Resource__immediateRequest>:
    5fb6:	0b 12       	push	r11		
    5fb8:	0a 12       	push	r10		
    5fba:	09 12       	push	r9		
    5fbc:	08 12       	push	r8		
    5fbe:	48 4f       	mov.b	r15,	r8	
    5fc0:	b0 12 50 4b 	call	#0x4b50	
    5fc4:	49 4f       	mov.b	r15,	r9	
    5fc6:	5f 43       	mov.b	#1,	r15	;r3 As==01
    5fc8:	b0 12 0c 5e 	call	#0x5e0c	
    5fcc:	4a 4f       	mov.b	r15,	r10	
    5fce:	4f 93       	tst.b	r15		
    5fd0:	06 24       	jz	$+14     	;abs 0x5fde
    5fd2:	4f 49       	mov.b	r9,	r15	
    5fd4:	b0 12 64 4b 	call	#0x4b64	
    5fd8:	7f 40 05 00 	mov.b	#5,	r15	;#0x0005
    5fdc:	25 3c       	jmp	$+76     	;abs 0x6028
    5fde:	b0 12 66 46 	call	#0x4666	
    5fe2:	4b 4f       	mov.b	r15,	r11	
    5fe4:	4f 9a       	cmp.b	r10,	r15	
    5fe6:	04 24       	jz	$+10     	;abs 0x5ff0
    5fe8:	c2 48 24 11 	mov.b	r8,	&0x1124	
    5fec:	4b 4a       	mov.b	r10,	r11	
    5fee:	18 3c       	jmp	$+50     	;abs 0x6020
    5ff0:	c2 9f 5e 11 	cmp.b	r15,	&0x115e	
    5ff4:	11 20       	jnz	$+36     	;abs 0x6018
    5ff6:	e2 43 5e 11 	mov.b	#2,	&0x115e	;r3 As==10
    5ffa:	c2 4f 06 12 	mov.b	r15,	&0x1206	
    5ffe:	b0 12 44 4d 	call	#0x4d44	
    6002:	c2 9b 27 11 	cmp.b	r11,	&0x1127	
    6006:	06 20       	jnz	$+14     	;abs 0x6014
    6008:	4f 4b       	mov.b	r11,	r15	
    600a:	b0 12 2e 5f 	call	#0x5f2e	
    600e:	c2 48 24 11 	mov.b	r8,	&0x1124	
    6012:	06 3c       	jmp	$+14     	;abs 0x6020
    6014:	c2 4b 5e 11 	mov.b	r11,	&0x115e	
    6018:	5f 43       	mov.b	#1,	r15	;r3 As==01
    601a:	b0 12 1e 4f 	call	#0x4f1e	
    601e:	5b 43       	mov.b	#1,	r11	;r3 As==01
    6020:	4f 49       	mov.b	r9,	r15	
    6022:	b0 12 64 4b 	call	#0x4b64	
    6026:	4f 4b       	mov.b	r11,	r15	
    6028:	38 41       	pop	r8		
    602a:	39 41       	pop	r9		
    602c:	3a 41       	pop	r10		
    602e:	3b 41       	pop	r11		
    6030:	30 41       	ret			

00006032 <CC2420ReceiveP__beginReceive>:
    6032:	a2 43 b2 11 	mov	#2,	&0x11b2	;r3 As==10
    6036:	d2 43 fc 11 	mov.b	#1,	&0x11fc	;r3 As==01
    603a:	e2 92 24 11 	cmp.b	#4,	&0x1124	;r2 As==10
    603e:	05 24       	jz	$+12     	;abs 0x604a
    6040:	6f 42       	mov.b	#4,	r15	;r2 As==10
    6042:	b0 12 b6 5f 	call	#0x5fb6	
    6046:	4f 93       	tst.b	r15		
    6048:	03 20       	jnz	$+8      	;abs 0x6050
    604a:	b0 12 d8 4e 	call	#0x4ed8	
    604e:	30 41       	ret			
    6050:	6f 42       	mov.b	#4,	r15	;r2 As==10
    6052:	b0 12 9c 5e 	call	#0x5e9c	
    6056:	30 41       	ret			

00006058 <CC2420ReceiveP__waitForNextPacket>:
    6058:	0b 12       	push	r11		
    605a:	b0 12 50 4b 	call	#0x4b50	
    605e:	4b 4f       	mov.b	r15,	r11	
    6060:	82 93 b2 11 	tst	&0x11b2	
    6064:	19 24       	jz	$+52     	;abs 0x6098
    6066:	c2 43 fc 11 	mov.b	#0,	&0x11fc	;r3 As==00
    606a:	5e 42 b9 11 	mov.b	&0x11b9,r14	
    606e:	4e 93       	tst.b	r14		
    6070:	03 24       	jz	$+8      	;abs 0x6078
    6072:	f2 b2 20 00 	bit.b	#8,	&0x0020	;r2 As==11
    6076:	06 20       	jnz	$+14     	;abs 0x6084
    6078:	5f 42 20 00 	mov.b	&0x0020,r15	
    607c:	5f f3       	and.b	#1,	r15	;r3 As==01
    607e:	08 20       	jnz	$+18     	;abs 0x6090
    6080:	4e 9f       	cmp.b	r15,	r14	
    6082:	03 24       	jz	$+8      	;abs 0x608a
    6084:	7e 53       	add.b	#-1,	r14	;r3 As==11
    6086:	c2 4e b9 11 	mov.b	r14,	&0x11b9	
    608a:	b0 12 32 60 	call	#0x6032	
    608e:	06 3c       	jmp	$+14     	;abs 0x609c
    6090:	92 43 b2 11 	mov	#1,	&0x11b2	;r3 As==01
    6094:	c2 43 b9 11 	mov.b	#0,	&0x11b9	;r3 As==00
    6098:	b0 12 de 4f 	call	#0x4fde	
    609c:	4f 4b       	mov.b	r11,	r15	
    609e:	b0 12 64 4b 	call	#0x4b64	
    60a2:	3b 41       	pop	r11		
    60a4:	30 41       	ret			

000060a6 <CC2420ReceiveP__flush>:
    60a6:	b0 12 88 48 	call	#0x4888	
    60aa:	b0 12 34 4f 	call	#0x4f34	
    60ae:	b0 12 6a 4c 	call	#0x4c6a	
    60b2:	7f 42       	mov.b	#8,	r15	;r2 As==11
    60b4:	b0 12 fc 4b 	call	#0x4bfc	
    60b8:	7f 42       	mov.b	#8,	r15	;r2 As==11
    60ba:	b0 12 fc 4b 	call	#0x4bfc	
    60be:	b0 12 34 4f 	call	#0x4f34	
    60c2:	b0 12 de 4f 	call	#0x4fde	
    60c6:	b0 12 58 60 	call	#0x6058	
    60ca:	30 41       	ret			

000060cc <Msp430SpiNoDmaP__0__signalDone>:
    60cc:	0b 12       	push	r11		
    60ce:	0a 12       	push	r10		
    60d0:	09 12       	push	r9		
    60d2:	08 12       	push	r8		
    60d4:	1a 42 40 13 	mov	&0x1340,r10	
    60d8:	5c 42 28 12 	mov.b	&0x1228,r12	
    60dc:	4c 93       	tst.b	r12		
    60de:	02 24       	jz	$+6      	;abs 0x60e4
    60e0:	30 40 8e 63 	br	#0x638e	
    60e4:	1e 42 2a 12 	mov	&0x122a,r14	
    60e8:	09 4e       	mov	r14,	r9	
    60ea:	39 f0 40 00 	and	#64,	r9	;#0x0040
    60ee:	02 20       	jnz	$+6      	;abs 0x60f4
    60f0:	30 40 2a 63 	br	#0x632a	
    60f4:	7e f0 bf ff 	and.b	#-65,	r14	;#0xffbf
    60f8:	7e 90 3f 00 	cmp.b	#63,	r14	;#0x003f
    60fc:	02 24       	jz	$+6      	;abs 0x6102
    60fe:	30 40 8e 63 	br	#0x638e	
    6102:	1b 42 76 11 	mov	&0x1176,r11	
    6106:	6d 4b       	mov.b	@r11,	r13	
    6108:	c2 4d b4 11 	mov.b	r13,	&0x11b4	
    610c:	1f 42 b2 11 	mov	&0x11b2,r15	
    6110:	3f 90 05 00 	cmp	#5,	r15	;#0x0005
    6114:	3e 24       	jz	$+126    	;abs 0x6192
    6116:	3f 90 06 00 	cmp	#6,	r15	;#0x0006
    611a:	80 24       	jz	$+258    	;abs 0x621c
    611c:	2f 93       	cmp	#2,	r15	;r3 As==10
    611e:	02 24       	jz	$+6      	;abs 0x6124
    6120:	30 40 1c 63 	br	#0x631c	
    6124:	b2 40 05 00 b2 11 	mov	#5,	&0x11b2	;#0x0005
    612a:	5f 42 92 11 	mov.b	&0x1192,r15	
    612e:	4c 4d       	mov.b	r13,	r12	
    6130:	4e 4f       	mov.b	r15,	r14	
    6132:	0c 9e       	cmp	r14,	r12	
    6134:	2a 34       	jge	$+86     	;abs 0x618a
    6136:	5e 42 20 00 	mov.b	&0x0020,r14	
    613a:	7e f2       	and.b	#8,	r14	;r2 As==11
    613c:	0a 20       	jnz	$+22     	;abs 0x6152
    613e:	5c 42 20 00 	mov.b	&0x0020,r12	
    6142:	5c f3       	and.b	#1,	r12	;r3 As==01
    6144:	4c 9e       	cmp.b	r14,	r12	
    6146:	05 20       	jnz	$+12     	;abs 0x6152
    6148:	4e 4d       	mov.b	r13,	r14	
    614a:	7e e3       	xor.b	#-1,	r14	;r3 As==11
    614c:	4e 5f       	add.b	r15,	r14	
    614e:	c2 4e 92 11 	mov.b	r14,	&0x1192	
    6152:	7d 90 2c 00 	cmp.b	#44,	r13	;#0x002c
    6156:	19 2c       	jc	$+52     	;abs 0x618a
    6158:	4d 93       	tst.b	r13		
    615a:	10 24       	jz	$+34     	;abs 0x617c
    615c:	0e 4b       	mov	r11,	r14	
    615e:	1e 53       	inc	r14		
    6160:	7d 92       	cmp.b	#8,	r13	;r2 As==11
    6162:	03 28       	jnc	$+8      	;abs 0x616a
    6164:	3d 40 07 00 	mov	#7,	r13	;#0x0007
    6168:	04 3c       	jmp	$+10     	;abs 0x6172
    616a:	b2 40 06 00 b2 11 	mov	#6,	&0x11b2	;#0x0006
    6170:	4d 4d       	mov.b	r13,	r13	
    6172:	0f 43       	clr	r15		
    6174:	b0 12 4e 4e 	call	#0x4e4e	
    6178:	30 40 8e 63 	br	#0x638e	
    617c:	c2 4d fc 11 	mov.b	r13,	&0x11fc	
    6180:	b0 12 34 4f 	call	#0x4f34	
    6184:	b0 12 de 4f 	call	#0x4fde	
    6188:	c6 3c       	jmp	$+398    	;abs 0x6316
    618a:	b0 12 a6 60 	call	#0x60a6	
    618e:	30 40 8e 63 	br	#0x638e	
    6192:	b2 40 06 00 b2 11 	mov	#6,	&0x11b2	;#0x0006
    6198:	c2 93 07 12 	tst.b	&0x1207	
    619c:	37 24       	jz	$+112    	;abs 0x620c
    619e:	c2 93 58 15 	tst.b	&0x1558	
    61a2:	34 20       	jnz	$+106    	;abs 0x620c
    61a4:	09 4b       	mov	r11,	r9	
    61a6:	19 53       	inc	r9		
    61a8:	0f 49       	mov	r9,	r15	
    61aa:	b0 12 44 45 	call	#0x4544	
    61ae:	3f f0 20 00 	and	#32,	r15	;#0x0020
    61b2:	2c 24       	jz	$+90     	;abs 0x620c
    61b4:	0a 4b       	mov	r11,	r10	
    61b6:	3a 50 06 00 	add	#6,	r10	;#0x0006
    61ba:	0f 4a       	mov	r10,	r15	
    61bc:	b0 12 44 45 	call	#0x4544	
    61c0:	08 4f       	mov	r15,	r8	
    61c2:	b0 12 56 4c 	call	#0x4c56	
    61c6:	08 9f       	cmp	r15,	r8	
    61c8:	05 24       	jz	$+12     	;abs 0x61d4
    61ca:	0f 4a       	mov	r10,	r15	
    61cc:	b0 12 44 45 	call	#0x4544	
    61d0:	3f 93       	cmp	#-1,	r15	;r3 As==11
    61d2:	1c 20       	jnz	$+58     	;abs 0x620c
    61d4:	0f 49       	mov	r9,	r15	
    61d6:	b0 12 44 45 	call	#0x4544	
    61da:	3f f0 07 00 	and	#7,	r15	;#0x0007
    61de:	1f 93       	cmp	#1,	r15	;r3 As==01
    61e0:	15 20       	jnz	$+44     	;abs 0x620c
    61e2:	b0 12 34 4f 	call	#0x4f34	
    61e6:	b0 12 6a 4c 	call	#0x4c6a	
    61ea:	7f 40 0a 00 	mov.b	#10,	r15	;#0x000a
    61ee:	b0 12 fc 4b 	call	#0x4bfc	
    61f2:	b0 12 34 4f 	call	#0x4f34	
    61f6:	b0 12 6a 4c 	call	#0x4c6a	
    61fa:	5e 42 b4 11 	mov.b	&0x11b4,r14	
    61fe:	7e 50 f9 ff 	add.b	#-7,	r14	;#0xfff9
    6202:	0f 4b       	mov	r11,	r15	
    6204:	3f 52       	add	#8,	r15	;r2 As==11
    6206:	b0 12 8c 4e 	call	#0x4e8c	
    620a:	c1 3c       	jmp	$+388    	;abs 0x638e
    620c:	5d 42 b4 11 	mov.b	&0x11b4,r13	
    6210:	7d 50 f9 ff 	add.b	#-7,	r13	;#0xfff9
    6214:	4d 4d       	mov.b	r13,	r13	
    6216:	0e 4b       	mov	r11,	r14	
    6218:	3e 52       	add	#8,	r14	;r2 As==11
    621a:	ab 3f       	jmp	$-168    	;abs 0x6172
    621c:	b0 12 34 4f 	call	#0x4f34	
    6220:	c2 93 b9 11 	tst.b	&0x11b9	
    6224:	02 20       	jnz	$+6      	;abs 0x622a
    6226:	b0 12 de 4f 	call	#0x4fde	
    622a:	c2 93 b9 11 	tst.b	&0x11b9	
    622e:	03 24       	jz	$+8      	;abs 0x6236
    6230:	f2 b2 20 00 	bit.b	#8,	&0x0020	;r2 As==11
    6234:	0b 20       	jnz	$+24     	;abs 0x624c
    6236:	d2 b3 20 00 	bit.b	#1,	&0x0020	;r3 As==01
    623a:	08 24       	jz	$+18     	;abs 0x624c
    623c:	5f 42 d2 15 	mov.b	&0x15d2,r15	
    6240:	4f 93       	tst.b	r15		
    6242:	04 24       	jz	$+10     	;abs 0x624c
    6244:	f2 90 0b 00 b4 11 	cmp.b	#11,	&0x11b4	;#0x000b
    624a:	05 2c       	jc	$+12     	;abs 0x6256
    624c:	1f 42 76 11 	mov	&0x1176,r15	
    6250:	b0 12 3c 48 	call	#0x483c	
    6254:	25 3c       	jmp	$+76     	;abs 0x62a0
    6256:	5f 93       	cmp.b	#1,	r15	;r3 As==01
    6258:	0e 20       	jnz	$+30     	;abs 0x6276
    625a:	5f 42 d8 15 	mov.b	&0x15d8,r15	
    625e:	0f 5f       	rla	r15		
    6260:	0f 5f       	rla	r15		
    6262:	1d 4f 78 15 	mov	5496(r15),r13	;0x1578(r15)
    6266:	1e 4f 7a 15 	mov	5498(r15),r14	;0x157a(r15)
    626a:	1f 42 76 11 	mov	&0x1176,r15	
    626e:	3f 50 30 00 	add	#48,	r15	;#0x0030
    6272:	b0 12 50 45 	call	#0x4550	
    6276:	5f 42 d8 15 	mov.b	&0x15d8,r15	
    627a:	1f 53       	inc	r15		
    627c:	7f f0 07 00 	and.b	#7,	r15	;#0x0007
    6280:	c2 4f d8 15 	mov.b	r15,	&0x15d8	
    6284:	5f 42 d2 15 	mov.b	&0x15d2,r15	
    6288:	7f 53       	add.b	#-1,	r15	;r3 As==11
    628a:	c2 4f d2 15 	mov.b	r15,	&0x15d2	
    628e:	08 24       	jz	$+18     	;abs 0x62a0
    6290:	1f 42 76 11 	mov	&0x1176,r15	
    6294:	b0 12 3c 48 	call	#0x483c	
    6298:	c2 43 d8 15 	mov.b	#0,	&0x15d8	;r3 As==00
    629c:	c2 43 d2 15 	mov.b	#0,	&0x15d2	;r3 As==00
    62a0:	5f 42 b4 11 	mov.b	&0x11b4,r15	
    62a4:	0f 5b       	add	r11,	r15	
    62a6:	cf 93 00 00 	tst.b	0(r15)		;0x0000(r15)
    62aa:	35 34       	jge	$+108    	;abs 0x6316
    62ac:	0a 93       	tst	r10		
    62ae:	33 24       	jz	$+104    	;abs 0x6316
    62b0:	0f 4b       	mov	r11,	r15	
    62b2:	1f 53       	inc	r15		
    62b4:	b0 12 44 45 	call	#0x4544	
    62b8:	7f f0 07 00 	and.b	#7,	r15	;#0x0007
    62bc:	1b 42 76 11 	mov	&0x1176,r11	
    62c0:	6f 93       	cmp.b	#2,	r15	;r3 As==10
    62c2:	22 20       	jnz	$+70     	;abs 0x6308
    62c4:	1f 42 0a 12 	mov	&0x120a,r15	
    62c8:	0f 93       	tst	r15		
    62ca:	25 24       	jz	$+76     	;abs 0x6316
    62cc:	b2 90 07 00 6c 11 	cmp	#7,	&0x116c	;#0x0007
    62d2:	21 20       	jnz	$+68     	;abs 0x6316
    62d4:	df 9b 03 00 03 00 	cmp.b	3(r11),	3(r15)	;0x0003(r11), 0x0003(r15)
    62da:	1d 20       	jnz	$+60     	;abs 0x6316
    62dc:	b0 12 d2 45 	call	#0x45d2	
    62e0:	1f 42 0a 12 	mov	&0x120a,r15	
    62e4:	3f 50 2a 00 	add	#42,	r15	;#0x002a
    62e8:	6e 4b       	mov.b	@r11,	r14	
    62ea:	df 43 04 00 	mov.b	#1,	4(r15)	;r3 As==01, 0x0004(r15)
    62ee:	0e 5b       	add	r11,	r14	
    62f0:	df 4e ff ff 00 00 	mov.b	-1(r14),0(r15)	;0xffff(r14), 0x0000(r15)
    62f6:	6e 4e       	mov.b	@r14,	r14	
    62f8:	7e f0 7f 00 	and.b	#127,	r14	;#0x007f
    62fc:	cf 4e 01 00 	mov.b	r14,	1(r15)	;0x0001(r15)
    6300:	4f 43       	clr.b	r15		
    6302:	b0 12 04 4f 	call	#0x4f04	
    6306:	07 3c       	jmp	$+16     	;abs 0x6316
    6308:	5f 93       	cmp.b	#1,	r15	;r3 As==01
    630a:	05 20       	jnz	$+12     	;abs 0x6316
    630c:	7f 50 13 00 	add.b	#19,	r15	;#0x0013
    6310:	b0 12 7a 4c 	call	#0x4c7a	
    6314:	3c 3c       	jmp	$+122    	;abs 0x638e
    6316:	b0 12 58 60 	call	#0x6058	
    631a:	39 3c       	jmp	$+116    	;abs 0x638e
    631c:	c2 4c fc 11 	mov.b	r12,	&0x11fc	
    6320:	b0 12 34 4f 	call	#0x4f34	
    6324:	b0 12 de 4f 	call	#0x4fde	
    6328:	32 3c       	jmp	$+102    	;abs 0x638e
    632a:	7e 90 3e 00 	cmp.b	#62,	r14	;#0x003e
    632e:	2f 20       	jnz	$+96     	;abs 0x638e
    6330:	b0 12 34 4f 	call	#0x4f34	
    6334:	b2 92 6c 11 	cmp	#8,	&0x116c	;r2 As==11
    6338:	0f 20       	jnz	$+32     	;abs 0x6358
    633a:	b0 12 6a 4c 	call	#0x4c6a	
    633e:	b0 12 2c 4c 	call	#0x4c2c	
    6342:	b0 12 34 4f 	call	#0x4f34	
    6346:	b0 12 e6 4f 	call	#0x4fe6	
    634a:	92 43 6c 11 	mov	#1,	&0x116c	;r3 As==01
    634e:	7f 40 03 00 	mov.b	#3,	r15	;#0x0003
    6352:	b0 12 e8 4e 	call	#0x4ee8	
    6356:	1b 3c       	jmp	$+56     	;abs 0x638e
    6358:	c2 93 2a 16 	tst.b	&0x162a	
    635c:	05 20       	jnz	$+12     	;abs 0x6368
    635e:	a2 42 6c 11 	mov	#4,	&0x116c	;r2 As==10
    6362:	b0 12 f6 52 	call	#0x52f6	
    6366:	13 3c       	jmp	$+40     	;abs 0x638e
    6368:	b0 12 e6 4f 	call	#0x4fe6	
    636c:	b2 40 03 00 6c 11 	mov	#3,	&0x116c	;#0x0003
    6372:	b0 12 04 46 	call	#0x4604	
    6376:	0c 4f       	mov	r15,	r12	
    6378:	3a 40 36 01 	mov	#310,	r10	;#0x0136
    637c:	b0 12 b4 8a 	call	#0x8ab4	
    6380:	3e 50 0b 00 	add	#11,	r14	;#0x000b
    6384:	82 4e 90 11 	mov	r14,	&0x1190	
    6388:	0f 49       	mov	r9,	r15	
    638a:	b0 12 7c 52 	call	#0x527c	
    638e:	38 41       	pop	r8		
    6390:	39 41       	pop	r9		
    6392:	3a 41       	pop	r10		
    6394:	3b 41       	pop	r11		
    6396:	30 41       	ret			

00006398 <CC2420TransmitP__acquireSpiResource>:
    6398:	0b 12       	push	r11		
    639a:	7f 40 03 00 	mov.b	#3,	r15	;#0x0003
    639e:	b0 12 b6 5f 	call	#0x5fb6	
    63a2:	4b 4f       	mov.b	r15,	r11	
    63a4:	4f 93       	tst.b	r15		
    63a6:	04 24       	jz	$+10     	;abs 0x63b0
    63a8:	7f 40 03 00 	mov.b	#3,	r15	;#0x0003
    63ac:	b0 12 9c 5e 	call	#0x5e9c	
    63b0:	4f 4b       	mov.b	r11,	r15	
    63b2:	3b 41       	pop	r11		
    63b4:	30 41       	ret			

000063b6 <CC2420CsmaP__Send__send.clone.161>:
    63b6:	0b 12       	push	r11		
    63b8:	0a 12       	push	r10		
    63ba:	09 12       	push	r9		
    63bc:	0b 4f       	mov	r15,	r11	
    63be:	b0 12 50 4b 	call	#0x4b50	
    63c2:	49 4f       	mov.b	r15,	r9	
    63c4:	6f 43       	mov.b	#2,	r15	;r3 As==10
    63c6:	b0 12 36 4c 	call	#0x4c36	
    63ca:	4f 93       	tst.b	r15		
    63cc:	05 20       	jnz	$+12     	;abs 0x63d8
    63ce:	4f 49       	mov.b	r9,	r15	
    63d0:	b0 12 64 4b 	call	#0x4b64	
    63d4:	5f 43       	mov.b	#1,	r15	;r3 As==01
    63d6:	53 3c       	jmp	$+168    	;abs 0x647e
    63d8:	0a 4b       	mov	r11,	r10	
    63da:	3a 50 2a 00 	add	#42,	r10	;#0x002a
    63de:	6f 42       	mov.b	#4,	r15	;r2 As==10
    63e0:	b0 12 4c 57 	call	#0x574c	
    63e4:	82 4b 44 12 	mov	r11,	&0x1244	
    63e8:	4f 49       	mov.b	r9,	r15	
    63ea:	b0 12 64 4b 	call	#0x4b64	
    63ee:	09 4b       	mov	r11,	r9	
    63f0:	19 53       	inc	r9		
    63f2:	0f 49       	mov	r9,	r15	
    63f4:	b0 12 44 45 	call	#0x4544	
    63f8:	0e 4f       	mov	r15,	r14	
    63fa:	3e f0 20 cc 	and	#-13280,r14	;#0xcc20
    63fe:	cb 4e 01 00 	mov.b	r14,	1(r11)	;0x0001(r11)
    6402:	8e 10       	swpb	r14		
    6404:	cb 4e 02 00 	mov.b	r14,	2(r11)	;0x0002(r11)
    6408:	0f 49       	mov	r9,	r15	
    640a:	b0 12 44 45 	call	#0x4544	
    640e:	3f d0 41 00 	bis	#65,	r15	;#0x0041
    6412:	cb 4f 01 00 	mov.b	r15,	1(r11)	;0x0001(r11)
    6416:	8f 10       	swpb	r15		
    6418:	cb 4f 02 00 	mov.b	r15,	2(r11)	;0x0002(r11)
    641c:	ca 43 04 00 	mov.b	#0,	4(r10)	;r3 As==00, 0x0004(r10)
    6420:	ca 43 00 00 	mov.b	#0,	0(r10)	;r3 As==00, 0x0000(r10)
    6424:	ca 43 01 00 	mov.b	#0,	1(r10)	;r3 As==00, 0x0001(r10)
    6428:	0d 43       	clr	r13		
    642a:	3e 40 00 80 	mov	#-32768,r14	;#0x8000
    642e:	0f 4b       	mov	r11,	r15	
    6430:	3f 50 30 00 	add	#48,	r15	;#0x0030
    6434:	b0 12 50 45 	call	#0x4550	
    6438:	d2 43 4f 15 	mov.b	#1,	&0x154f	;r3 As==01
    643c:	1b 42 44 12 	mov	&0x1244,r11	
    6440:	b0 12 50 4b 	call	#0x4b50	
    6444:	1e 42 6c 11 	mov	&0x116c,r14	
    6448:	3e 92       	cmp	#8,	r14	;r2 As==11
    644a:	02 24       	jz	$+6      	;abs 0x6450
    644c:	1e 93       	cmp	#1,	r14	;r3 As==01
    644e:	03 24       	jz	$+8      	;abs 0x6456
    6450:	b0 12 64 4b 	call	#0x4b64	
    6454:	13 3c       	jmp	$+40     	;abs 0x647c
    6456:	a2 43 6c 11 	mov	#2,	&0x116c	;r3 As==10
    645a:	c2 4e 2a 16 	mov.b	r14,	&0x162a	
    645e:	82 4b 0a 12 	mov	r11,	&0x120a	
    6462:	c2 43 7e 11 	mov.b	#0,	&0x117e	;r3 As==00
    6466:	b0 12 64 4b 	call	#0x4b64	
    646a:	b0 12 98 63 	call	#0x6398	
    646e:	4b 4f       	mov.b	r15,	r11	
    6470:	4f 93       	tst.b	r15		
    6472:	04 20       	jnz	$+10     	;abs 0x647c
    6474:	b0 12 60 57 	call	#0x5760	
    6478:	4f 4b       	mov.b	r11,	r15	
    647a:	01 3c       	jmp	$+4      	;abs 0x647e
    647c:	4f 43       	clr.b	r15		
    647e:	39 41       	pop	r9		
    6480:	3a 41       	pop	r10		
    6482:	3b 41       	pop	r11		
    6484:	30 41       	ret			

00006486 <CC2420TinyosNetworkP__ActiveSend__send>:
    6486:	0b 12       	push	r11		
    6488:	0a 12       	push	r10		
    648a:	09 12       	push	r9		
    648c:	0b 4f       	mov	r15,	r11	
    648e:	49 4e       	mov.b	r14,	r9	
    6490:	b0 12 50 4b 	call	#0x4b50	
    6494:	4a 4f       	mov.b	r15,	r10	
    6496:	0f 4b       	mov	r11,	r15	
    6498:	b0 12 a0 48 	call	#0x48a0	
    649c:	ff 40 3f 00 00 00 	mov.b	#63,	0(r15)	;#0x003f, 0x0000(r15)
    64a2:	4f 4a       	mov.b	r10,	r15	
    64a4:	b0 12 64 4b 	call	#0x4b64	
    64a8:	82 43 1a 16 	mov	#0,	&0x161a	;r3 As==00
    64ac:	7f 40 03 00 	mov.b	#3,	r15	;#0x0003
    64b0:	b0 12 0c 5e 	call	#0x5e0c	
    64b4:	4a 4f       	mov.b	r15,	r10	
    64b6:	4f 93       	tst.b	r15		
    64b8:	2d 20       	jnz	$+92     	;abs 0x6514
    64ba:	5d 42 69 15 	mov.b	&0x1569,r13	
    64be:	4e 4d       	mov.b	r13,	r14	
    64c0:	5e 53       	inc.b	r14		
    64c2:	c2 4e 69 15 	mov.b	r14,	&0x1569	
    64c6:	cb 4d 03 00 	mov.b	r13,	3(r11)	;0x0003(r11)
    64ca:	b0 12 0c 5e 	call	#0x5e0c	
    64ce:	4f 9a       	cmp.b	r10,	r15	
    64d0:	1a 20       	jnz	$+54     	;abs 0x6506
    64d2:	82 4b 0c 12 	mov	r11,	&0x120c	
    64d6:	c2 49 58 12 	mov.b	r9,	&0x1258	
    64da:	82 43 6a 15 	mov	#0,	&0x156a	;r3 As==00
    64de:	0f 4b       	mov	r11,	r15	
    64e0:	3f 50 36 00 	add	#54,	r15	;#0x0036
    64e4:	b0 12 ca 46 	call	#0x46ca	
    64e8:	0f 93       	tst	r15		
    64ea:	03 24       	jz	$+8      	;abs 0x64f2
    64ec:	0f 4b       	mov	r11,	r15	
    64ee:	b0 12 ac 46 	call	#0x46ac	
    64f2:	0f 4b       	mov	r11,	r15	
    64f4:	b0 12 b6 63 	call	#0x63b6	
    64f8:	4b 4f       	mov.b	r15,	r11	
    64fa:	4f 93       	tst.b	r15		
    64fc:	0d 24       	jz	$+28     	;abs 0x6518
    64fe:	4f 43       	clr.b	r15		
    6500:	b0 12 1e 4f 	call	#0x4f1e	
    6504:	02 3c       	jmp	$+6      	;abs 0x650a
    6506:	7b 40 05 00 	mov.b	#5,	r11	;#0x0005
    650a:	7f 40 03 00 	mov.b	#3,	r15	;#0x0003
    650e:	b0 12 1e 4f 	call	#0x4f1e	
    6512:	02 3c       	jmp	$+6      	;abs 0x6518
    6514:	7b 40 05 00 	mov.b	#5,	r11	;#0x0005
    6518:	4f 4b       	mov.b	r11,	r15	
    651a:	39 41       	pop	r9		
    651c:	3a 41       	pop	r10		
    651e:	3b 41       	pop	r11		
    6520:	30 41       	ret			

00006522 <CC2420ActiveMessageP__AMSend__send>:
    6522:	0b 12       	push	r11		
    6524:	0a 12       	push	r10		
    6526:	09 12       	push	r9		
    6528:	0b 4d       	mov	r13,	r11	
    652a:	4a 4c       	mov.b	r12,	r10	
    652c:	7c 90 1f 00 	cmp.b	#31,	r12	;#0x001f
    6530:	52 2c       	jc	$+166    	;abs 0x65d6
    6532:	cd 4f 0b 00 	mov.b	r15,	11(r13)	;0x000b(r13)
    6536:	0f 4d       	mov	r13,	r15	
    6538:	3f 50 06 00 	add	#6,	r15	;#0x0006
    653c:	cf 4e 00 00 	mov.b	r14,	0(r15)	;0x0000(r15)
    6540:	8e 10       	swpb	r14		
    6542:	cf 4e 01 00 	mov.b	r14,	1(r15)	;0x0001(r15)
    6546:	b0 12 50 4b 	call	#0x4b50	
    654a:	19 42 04 12 	mov	&0x1204,r9	
    654e:	b0 12 64 4b 	call	#0x4b64	
    6552:	0f 4b       	mov	r11,	r15	
    6554:	2f 52       	add	#4,	r15	;r2 As==10
    6556:	cf 49 00 00 	mov.b	r9,	0(r15)	;0x0000(r15)
    655a:	89 10       	swpb	r9		
    655c:	cf 49 01 00 	mov.b	r9,	1(r15)	;0x0001(r15)
    6560:	b0 12 1c 57 	call	#0x571c	
    6564:	0e 4b       	mov	r11,	r14	
    6566:	3e 52       	add	#8,	r14	;r2 As==11
    6568:	ce 4f 00 00 	mov.b	r15,	0(r14)	;0x0000(r14)
    656c:	8f 10       	swpb	r15		
    656e:	ce 4f 01 00 	mov.b	r15,	1(r14)	;0x0001(r14)
    6572:	0f 4b       	mov	r11,	r15	
    6574:	1f 53       	inc	r15		
    6576:	b0 12 44 45 	call	#0x4544	
    657a:	3f d0 40 88 	bis	#-30656,r15	;#0x8840
    657e:	cb 4f 01 00 	mov.b	r15,	1(r11)	;0x0001(r11)
    6582:	8f 10       	swpb	r15		
    6584:	cb 4f 02 00 	mov.b	r15,	2(r11)	;0x0002(r11)
    6588:	4f 4a       	mov.b	r10,	r15	
    658a:	7f 50 0d 00 	add.b	#13,	r15	;#0x000d
    658e:	cb 4f 00 00 	mov.b	r15,	0(r11)	;0x0000(r11)
    6592:	c2 93 2b 11 	tst.b	&0x112b	
    6596:	09 24       	jz	$+20     	;abs 0x65aa
    6598:	c2 43 2b 11 	mov.b	#0,	&0x112b	;r3 As==00
    659c:	4e 4a       	mov.b	r10,	r14	
    659e:	0f 4b       	mov	r11,	r15	
    65a0:	b0 12 86 64 	call	#0x6486	
    65a4:	4f 93       	tst.b	r15		
    65a6:	10 20       	jnz	$+34     	;abs 0x65c8
    65a8:	1a 3c       	jmp	$+54     	;abs 0x65de
    65aa:	c2 4a 42 12 	mov.b	r10,	&0x1242	
    65ae:	d2 42 2b 11 43 12 	mov.b	&0x112b,&0x1243	
    65b4:	82 4b 72 11 	mov	r11,	&0x1172	
    65b8:	7f 40 15 00 	mov.b	#21,	r15	;#0x0015
    65bc:	b0 12 7a 4c 	call	#0x4c7a	
    65c0:	c2 93 2b 11 	tst.b	&0x112b	
    65c4:	0a 24       	jz	$+22     	;abs 0x65da
    65c6:	03 3c       	jmp	$+8      	;abs 0x65ce
    65c8:	f2 43 2b 11 	mov.b	#-1,	&0x112b	;r3 As==11
    65cc:	08 3c       	jmp	$+18     	;abs 0x65de
    65ce:	c2 43 12 12 	mov.b	#0,	&0x1212	;r3 As==00
    65d2:	4f 43       	clr.b	r15		
    65d4:	04 3c       	jmp	$+10     	;abs 0x65de
    65d6:	6f 43       	mov.b	#2,	r15	;r3 As==10
    65d8:	02 3c       	jmp	$+6      	;abs 0x65de
    65da:	7f 40 09 00 	mov.b	#9,	r15	;#0x0009
    65de:	39 41       	pop	r9		
    65e0:	3a 41       	pop	r10		
    65e2:	3b 41       	pop	r11		
    65e4:	30 41       	ret			

000065e6 <AMQueueImplP__0__Send__send>:
    65e6:	0b 12       	push	r11		
    65e8:	0a 12       	push	r10		
    65ea:	09 12       	push	r9		
    65ec:	08 12       	push	r8		
    65ee:	07 12       	push	r7		
    65f0:	49 4f       	mov.b	r15,	r9	
    65f2:	0a 4e       	mov	r14,	r10	
    65f4:	48 4d       	mov.b	r13,	r8	
    65f6:	6f 43       	mov.b	#2,	r15	;r3 As==10
    65f8:	4f 99       	cmp.b	r9,	r15	
    65fa:	28 28       	jnc	$+82     	;abs 0x664c
    65fc:	4b 49       	mov.b	r9,	r11	
    65fe:	0b 5b       	rla	r11		
    6600:	3b 50 50 12 	add	#4688,	r11	;#0x1250
    6604:	8b 93 00 00 	tst	0(r11)		;0x0000(r11)
    6608:	23 20       	jnz	$+72     	;abs 0x6650
    660a:	8b 4e 00 00 	mov	r14,	0(r11)	;0x0000(r11)
    660e:	4e 4d       	mov.b	r13,	r14	
    6610:	7e 50 0d 00 	add.b	#13,	r14	;#0x000d
    6614:	ca 4e 00 00 	mov.b	r14,	0(r10)	;0x0000(r10)
    6618:	5f 92 2e 11 	cmp.b	&0x112e,r15	
    661c:	1c 2c       	jc	$+58     	;abs 0x6656
    661e:	57 4a 0b 00 	mov.b	11(r10),r7	;0x000b(r10)
    6622:	0f 4a       	mov	r10,	r15	
    6624:	3f 50 06 00 	add	#6,	r15	;#0x0006
    6628:	b0 12 44 45 	call	#0x4544	
    662c:	c2 49 2e 11 	mov.b	r9,	&0x112e	
    6630:	4c 48       	mov.b	r8,	r12	
    6632:	0d 4a       	mov	r10,	r13	
    6634:	0e 4f       	mov	r15,	r14	
    6636:	4f 47       	mov.b	r7,	r15	
    6638:	b0 12 22 65 	call	#0x6522	
    663c:	4f 93       	tst.b	r15		
    663e:	0c 24       	jz	$+26     	;abs 0x6658
    6640:	f2 40 03 00 2e 11 	mov.b	#3,	&0x112e	;#0x0003
    6646:	8b 43 00 00 	mov	#0,	0(r11)	;r3 As==00, 0x0000(r11)
    664a:	06 3c       	jmp	$+14     	;abs 0x6658
    664c:	5f 43       	mov.b	#1,	r15	;r3 As==01
    664e:	04 3c       	jmp	$+10     	;abs 0x6658
    6650:	7f 40 05 00 	mov.b	#5,	r15	;#0x0005
    6654:	01 3c       	jmp	$+4      	;abs 0x6658
    6656:	4f 43       	clr.b	r15		
    6658:	37 41       	pop	r7		
    665a:	38 41       	pop	r8		
    665c:	39 41       	pop	r9		
    665e:	3a 41       	pop	r10		
    6660:	3b 41       	pop	r11		
    6662:	30 41       	ret			
    6664:	62 65       	addc.b	@r5,	r2	
    6666:	61 63       	addc.b	#2,	r1	;r3 As==10
    6668:	6f 6e       	addc.b	@r14,	r15	
    666a:	64 20       	jnz	$+202    	;abs 0x6734
    666c:	74 72       	subc.b	#8,	r4	;r2 As==11
    666e:	61 6e       	addc.b	@r14,	r1	
    6670:	73 6d       	.word	0x6d73;	????	Illegal as 2-op instr
    6672:	69 74       	subc.b	@r4,	r9	
    6674:	74 65       	addc.b	@r5+,	r4	
    6676:	64 20       	jnz	$+202    	;abs 0x6740
    6678:	00 49       	br	r9		
    667a:	20 64       	addc	@r4,	r0	
    667c:	6f 6e       	addc.b	@r14,	r15	
    667e:	27 74       	subc	@r4,	r7	
    6680:	20 68       	addc	@r8,	r0	
    6682:	61 76       	subc.b	@r6,	r1	
    6684:	65 20       	jnz	$+204    	;abs 0x6750
    6686:	61 20       	jnz	$+196    	;abs 0x674a
    6688:	73 6c       	.word	0x6c73;	????	Illegal as 2-op instr
    668a:	6f 74       	subc.b	@r4,	r15	
    668c:	20 73       	subc	#2,	r0	;r3 As==10
    668e:	6f 20       	jnz	$+224    	;abs 0x676e
    6690:	73 65       	.word	0x6573;	????	Illegal as 2-op instr
    6692:	6e 64       	addc.b	@r4,	r14	
    6694:	69 6e       	addc.b	@r14,	r9	
    6696:	67 20       	jnz	$+208    	;abs 0x6766
    6698:	73 6c       	.word	0x6c73;	????	Illegal as 2-op instr
    669a:	6f 74       	subc.b	@r4,	r15	
    669c:	20 72       	subc	#4,	r0	;r2 As==10
    669e:	65 71       	subc.b	@r1,	r5	
    66a0:	20 00       	.word	0x0020;	????	
    66a2:	49 20       	jnz	$+148    	;abs 0x6736
    66a4:	61 6d       	addc.b	@r13,	r1	
    66a6:	20 6e       	addc	@r14,	r0	
    66a8:	6f 77       	subc.b	@r7,	r15	
    66aa:	20 67       	addc	@r7,	r0	
    66ac:	6f 6e       	addc.b	@r14,	r15	
    66ae:	6e 61       	addc.b	@r1,	r14	
    66b0:	20 73       	subc	#2,	r0	;r3 As==10
    66b2:	65 6e       	addc.b	@r14,	r5	
    66b4:	64 20       	jnz	$+202    	;abs 0x677e
    66b6:	6d 79       	subc.b	@r9,	r13	
    66b8:	20 70       	subc	@r0,	r0	
    66ba:	61 63       	addc.b	#2,	r1	;r3 As==10
    66bc:	6b 65       	addc.b	@r5,	r11	
    66be:	74 20       	jnz	$+234    	;abs 0x67a8
    66c0:	00 66       	addc	r6,	r0	
    66c2:	6c 61       	addc.b	@r1,	r12	
    66c4:	67 20       	jnz	$+208    	;abs 0x6794
    66c6:	77 61       	addc.b	@r1+,	r7	
    66c8:	73 20       	jnz	$+232    	;abs 0x67b0
    66ca:	72 65       	addc.b	@r5+,	r2	
    66cc:	73 65       	.word	0x6573;	????	Illegal as 2-op instr
    66ce:	74 20       	jnz	$+234    	;abs 0x67b8
    66d0:	25 64       	addc	@r4,	r5	
    66d2:	20 0a       	.word	0x0a20;	????	
    66d4:	00 53       	add	#0,	r0	;r3 As==00
    66d6:	65 6e       	addc.b	@r14,	r5	
    66d8:	64 69       	addc.b	@r9,	r4	
    66da:	6e 67       	addc.b	@r7,	r14	
    66dc:	20 77       	subc	@r7,	r0	
    66de:	61 73       	subc.b	#2,	r1	;r3 As==10
    66e0:	20 68       	addc	@r8,	r0	
    66e2:	61 6c       	addc.b	@r12,	r1	
    66e4:	74 65       	addc.b	@r5+,	r4	
    66e6:	64 2c       	jc	$+202    	;abs 0x67b0
    66e8:	20 73       	subc	#2,	r0	;r3 As==10
    66ea:	74 61       	addc.b	@r1+,	r4	
    66ec:	72 74       	subc.b	@r4+,	r2	
    66ee:	69 6e       	addc.b	@r14,	r9	
    66f0:	67 20       	jnz	$+208    	;abs 0x67c0
    66f2:	69 74       	subc.b	@r4,	r9	
    66f4:	20 6e       	addc	@r14,	r0	
    66f6:	6f 77       	subc.b	@r7,	r15	
    66f8:	20 00       	.word	0x0020;	????	
    66fa:	42 65       	addc.b	r5,	r2	
    66fc:	61 63       	addc.b	#2,	r1	;r3 As==10
    66fe:	6f 6e       	addc.b	@r14,	r15	
    6700:	20 77       	subc	@r7,	r0	
    6702:	61 73       	subc.b	#2,	r1	;r3 As==10
    6704:	6e 27       	jz	$-290    	;abs 0x65e2
    6706:	74 20       	jnz	$+234    	;abs 0x67f0
    6708:	72 65       	addc.b	@r5+,	r2	
    670a:	63 65       	.word	0x6563;	????	Illegal as 2-op instr
    670c:	69 76       	subc.b	@r6,	r9	
    670e:	65 64       	addc.b	@r4,	r5	
    6710:	20 61       	addc	@r1,	r0	
    6712:	6e 64       	addc.b	@r4,	r14	
    6714:	20 74       	subc	@r4,	r0	
    6716:	68 65       	addc.b	@r5,	r8	
    6718:	20 76       	subc	@r6,	r0	
    671a:	61 6c       	addc.b	@r12,	r1	
    671c:	75 65       	addc.b	@r5+,	r5	
    671e:	20 6f       	addc	@r15,	r0	
    6720:	66 20       	jnz	$+206    	;abs 0x67ee
    6722:	74 68       	addc.b	@r8+,	r4	
    6724:	65 20       	jnz	$+204    	;abs 0x67f0
    6726:	66 6c       	addc.b	@r12,	r6	
    6728:	61 67       	addc.b	@r7,	r1	
    672a:	20 69       	addc	@r9,	r0	
    672c:	73 20       	jnz	$+232    	;abs 0x6814
    672e:	25 64       	addc	@r4,	r5	
    6730:	0a 20       	jnz	$+22     	;abs 0x6746
    6732:	00 48       	br	r8		
    6734:	61 6c       	addc.b	@r12,	r1	
    6736:	74 69       	addc.b	@r9+,	r4	
    6738:	6e 67       	addc.b	@r7,	r14	
    673a:	20 73       	subc	#2,	r0	;r3 As==10
    673c:	65 6e       	addc.b	@r14,	r5	
    673e:	64 69       	addc.b	@r9,	r4	
    6740:	6e 67       	addc.b	@r7,	r14	
    6742:	20 00       	.word	0x0020;	????	
    6744:	63 68       	.word	0x6863;	????	Illegal as 2-op instr
    6746:	65 63       	addc.b	#2,	r5	;r3 As==10
    6748:	6b 20       	jnz	$+216    	;abs 0x6820
    674a:	62 65       	addc.b	@r5,	r2	
    674c:	61 63       	addc.b	#2,	r1	;r3 As==10
    674e:	6f 6e       	addc.b	@r14,	r15	
    6750:	20 64       	addc	@r4,	r0	
    6752:	6f 6e       	addc.b	@r14,	r15	
    6754:	65 20       	jnz	$+204    	;abs 0x6820
    6756:	73 74       	.word	0x7473;	????	Illegal as 2-op instr
    6758:	6f 70       	subc.b	@r0,	r15	
    675a:	70 65       	addc.b	@r5+,	r0	
    675c:	64 20       	jnz	$+202    	;abs 0x6826
    675e:	72 61       	addc.b	@r1+,	r2	
    6760:	64 69       	addc.b	@r9,	r4	
    6762:	6f 20       	jnz	$+224    	;abs 0x6842
    6764:	00 20       	jnz	$+2      	;abs 0x6766
    6766:	66 6c       	addc.b	@r12,	r6	
    6768:	61 67       	addc.b	@r7,	r1	
    676a:	20 69       	addc	@r9,	r0	
    676c:	6e 73       	subc.b	#2,	r14	;r3 As==10
    676e:	69 64       	addc.b	@r4,	r9	
    6770:	65 20       	jnz	$+204    	;abs 0x683c
    6772:	73 65       	.word	0x6573;	????	Illegal as 2-op instr
    6774:	74 20       	jnz	$+234    	;abs 0x685e
    6776:	66 6c       	addc.b	@r12,	r6	
    6778:	61 67       	addc.b	@r7,	r1	
    677a:	20 25       	jz	$+578    	;abs 0x69bc
    677c:	64 20       	jnz	$+202    	;abs 0x6846
    677e:	0a 00       	.word	0x000a;	????	
    6780:	49 6e       	addc.b	r14,	r9	
    6782:	69 74       	subc.b	@r4,	r9	
    6784:	69 61       	addc.b	@r1,	r9	
    6786:	6c 69       	addc.b	@r9,	r12	
    6788:	7a 69       	addc.b	@r9+,	r10	
    678a:	6e 67       	addc.b	@r7,	r14	
    678c:	20 74       	subc	@r4,	r0	
    678e:	68 65       	addc.b	@r5,	r8	
    6790:	20 74       	subc	@r4,	r0	
    6792:	69 6d       	addc.b	@r13,	r9	
    6794:	65 72       	subc.b	#4,	r5	;r2 As==10
    6796:	20 74       	subc	@r4,	r0	
    6798:	6f 20       	jnz	$+224    	;abs 0x6878
    679a:	73 74       	.word	0x7473;	????	Illegal as 2-op instr
    679c:	61 72       	subc.b	#4,	r1	;r2 As==10
    679e:	74 20       	jnz	$+234    	;abs 0x6888
    67a0:	73 65       	.word	0x6573;	????	Illegal as 2-op instr
    67a2:	6e 64       	addc.b	@r4,	r14	
    67a4:	69 6e       	addc.b	@r14,	r9	
    67a6:	67 20       	jnz	$+208    	;abs 0x6876
    67a8:	00 49       	br	r9		
    67aa:	6e 73       	subc.b	#2,	r14	;r3 As==10
    67ac:	69 64       	addc.b	@r4,	r9	
    67ae:	65 20       	jnz	$+204    	;abs 0x687a
    67b0:	52 61 64 69 	addc.b	26980(r1),r2	;0x6964(r1)
    67b4:	6f 5f       	add.b	@r15,	r15	
    67b6:	74 69       	addc.b	@r9+,	r4	
    67b8:	6d 65       	addc.b	@r5,	r13	
    67ba:	72 20       	jnz	$+230    	;abs 0x68a0
    67bc:	73 74       	.word	0x7473;	????	Illegal as 2-op instr
    67be:	61 72       	subc.b	#4,	r1	;r2 As==10
    67c0:	74 69       	addc.b	@r9+,	r4	
    67c2:	6e 67       	addc.b	@r7,	r14	
    67c4:	20 72       	subc	#4,	r0	;r2 As==10
    67c6:	61 64       	addc.b	@r4,	r1	
    67c8:	69 6f       	addc.b	@r15,	r9	
    67ca:	20 00       	.word	0x0020;	????	
    67cc:	54 68 69 73 	addc.b	29545(r8),r4	;0x7369(r8)
    67d0:	20 69       	addc	@r9,	r0	
    67d2:	73 20       	jnz	$+232    	;abs 0x68ba
    67d4:	74 68       	addc.b	@r8+,	r4	
    67d6:	65 20       	jnz	$+204    	;abs 0x68a2
    67d8:	63 6c       	.word	0x6c63;	????	Illegal as 2-op instr
    67da:	69 65       	addc.b	@r5,	r9	
    67dc:	6e 74       	subc.b	@r4,	r14	
    67de:	20 77       	subc	@r7,	r0	
    67e0:	69 74       	subc.b	@r4,	r9	
    67e2:	68 20       	jnz	$+210    	;abs 0x68b4
    67e4:	25 64       	addc	@r4,	r5	
    67e6:	20 0a       	.word	0x0a20;	????	
	...

000067ea <VirtualizeTimerC__0__fireTimers>:
    67ea:	0b 12       	push	r11		
    67ec:	0a 12       	push	r10		
    67ee:	09 12       	push	r9		
    67f0:	08 12       	push	r8		
    67f2:	07 12       	push	r7		
    67f4:	06 12       	push	r6		
    67f6:	05 12       	push	r5		
    67f8:	06 4e       	mov	r14,	r6	
    67fa:	07 4f       	mov	r15,	r7	
    67fc:	35 40 62 12 	mov	#4706,	r5	;#0x1262
    6800:	0c 43       	clr	r12		
    6802:	0f 4c       	mov	r12,	r15	
    6804:	0f 5f       	rla	r15		
    6806:	0f 5f       	rla	r15		
    6808:	0f 5c       	add	r12,	r15	
    680a:	0f 5f       	rla	r15		
    680c:	3f 50 62 12 	add	#4706,	r15	;#0x1262
    6810:	5f 4f 08 00 	mov.b	8(r15),	r15	;0x0008(r15)
    6814:	6f b3       	bit.b	#2,	r15	;r3 As==10
    6816:	02 20       	jnz	$+6      	;abs 0x681c
    6818:	30 40 5c 6b 	br	#0x6b5c	
    681c:	28 45       	mov	@r5,	r8	
    681e:	19 45 02 00 	mov	2(r5),	r9	;0x0002(r5)
    6822:	1d 45 04 00 	mov	4(r5),	r13	;0x0004(r5)
    6826:	1e 45 06 00 	mov	6(r5),	r14	;0x0006(r5)
    682a:	0a 46       	mov	r6,	r10	
    682c:	0b 47       	mov	r7,	r11	
    682e:	0a 88       	sub	r8,	r10	
    6830:	0b 79       	subc	r9,	r11	
    6832:	0b 9e       	cmp	r14,	r11	
    6834:	02 2c       	jc	$+6      	;abs 0x683a
    6836:	30 40 5c 6b 	br	#0x6b5c	
    683a:	0b 9e       	cmp	r14,	r11	
    683c:	04 20       	jnz	$+10     	;abs 0x6846
    683e:	0a 9d       	cmp	r13,	r10	
    6840:	02 2c       	jc	$+6      	;abs 0x6846
    6842:	30 40 5c 6b 	br	#0x6b5c	
    6846:	4a 4f       	mov.b	r15,	r10	
    6848:	5a f3       	and.b	#1,	r10	;r3 As==01
    684a:	0f 4c       	mov	r12,	r15	
    684c:	0f 5f       	rla	r15		
    684e:	4a 93       	tst.b	r10		
    6850:	07 24       	jz	$+16     	;abs 0x6860
    6852:	0f 5f       	rla	r15		
    6854:	0f 5c       	add	r12,	r15	
    6856:	0f 5f       	rla	r15		
    6858:	ff f0 fd ff 6a 12 	and.b	#-3,	4714(r15);#0xfffd, 0x126a(r15)
    685e:	0b 3c       	jmp	$+24     	;abs 0x6876
    6860:	0f 5f       	rla	r15		
    6862:	0f 5c       	add	r12,	r15	
    6864:	0f 5f       	rla	r15		
    6866:	0a 4d       	mov	r13,	r10	
    6868:	0b 4e       	mov	r14,	r11	
    686a:	0a 58       	add	r8,	r10	
    686c:	0b 69       	addc	r9,	r11	
    686e:	8f 4a 62 12 	mov	r10,	4706(r15);0x1262(r15)
    6872:	8f 4b 64 12 	mov	r11,	4708(r15);0x1264(r15)
    6876:	7c 92       	cmp.b	#8,	r12	;r2 As==11
    6878:	02 28       	jnc	$+6      	;abs 0x687e
    687a:	30 40 6a 6b 	br	#0x6b6a	
    687e:	4c 4c       	mov.b	r12,	r12	
    6880:	0c 5c       	rla	r12		
    6882:	10 4c 86 68 	br	26758(r12)	;0x6886(r12)
    6886:	96 68 e6 68 1c 69 	addc	26854(r8),26908(r6);0x68e6(r8), 0x691c(r6)
    688c:	7c 69       	addc.b	@r9+,	r12	
    688e:	c6 6a dc 6a 	addc.b	r10,	27356(r6);0x6adc(r6)
    6892:	ec 6a fa 6a 	addc.b	@r10,	27386(r12);0x6afa(r12)
    6896:	b0 12 f2 4f 	call	#0x4ff2	
    689a:	82 4e 94 11 	mov	r14,	&0x1194	
    689e:	82 4f 96 11 	mov	r15,	&0x1196	
    68a2:	3f 40 64 66 	mov	#26212,	r15	;#0x6664
    68a6:	b0 12 60 8a 	call	#0x8a60	
    68aa:	f2 40 82 ff ce 11 	mov.b	#-126,	&0x11ce	;#0xff82
    68b0:	1d 42 94 11 	mov	&0x1194,r13	
    68b4:	1e 42 96 11 	mov	&0x1196,r14	
    68b8:	3f 40 cf 11 	mov	#4559,	r15	;#0x11cf
    68bc:	b0 12 50 45 	call	#0x4550	
    68c0:	3e 43       	mov	#-1,	r14	;r3 As==11
    68c2:	3f 40 c0 11 	mov	#4544,	r15	;#0x11c0
    68c6:	b0 12 0e 49 	call	#0x490e	
    68ca:	f2 40 3d 00 cb 11 	mov.b	#61,	&0x11cb	;#0x003d
    68d0:	7d 40 07 00 	mov.b	#7,	r13	;#0x0007
    68d4:	3e 40 c0 11 	mov	#4544,	r14	;#0x11c0
    68d8:	4f 43       	clr.b	r15		
    68da:	b0 12 e6 65 	call	#0x65e6	
    68de:	d2 43 ef 11 	mov.b	#1,	&0x11ef	;r3 As==01
    68e2:	30 40 6a 6b 	br	#0x6b6a	
    68e6:	3f 40 79 66 	mov	#26233,	r15	;#0x6679
    68ea:	b0 12 60 8a 	call	#0x8a60	
    68ee:	c2 93 98 11 	tst.b	&0x1198	
    68f2:	02 24       	jz	$+6      	;abs 0x68f8
    68f4:	30 40 6a 6b 	br	#0x6b6a	
    68f8:	f2 40 03 00 17 16 	mov.b	#3,	&0x1617	;#0x0003
    68fe:	c2 43 16 16 	mov.b	#0,	&0x1616	;r3 As==00
    6902:	1e 43       	mov	#1,	r14	;r3 As==01
    6904:	3f 40 e0 15 	mov	#5600,	r15	;#0x15e0
    6908:	b0 12 0e 49 	call	#0x490e	
    690c:	f2 40 f0 ff eb 15 	mov.b	#-16,	&0x15eb	;#0xfff0
    6912:	5d 43       	mov.b	#1,	r13	;r3 As==01
    6914:	3e 40 e0 15 	mov	#5600,	r14	;#0x15e0
    6918:	4f 4d       	mov.b	r13,	r15	
    691a:	2d 3c       	jmp	$+92     	;abs 0x6976
    691c:	92 92 34 11 32 11 	cmp	&0x1134,&0x1132	
    6922:	02 2c       	jc	$+6      	;abs 0x6928
    6924:	30 40 6a 6b 	br	#0x6b6a	
    6928:	c2 93 98 11 	tst.b	&0x1198	
    692c:	02 24       	jz	$+6      	;abs 0x6932
    692e:	30 40 6a 6b 	br	#0x6b6a	
    6932:	3f 40 a2 66 	mov	#26274,	r15	;#0x66a2
    6936:	b0 12 60 8a 	call	#0x8a60	
    693a:	f2 40 03 00 17 16 	mov.b	#3,	&0x1617	;#0x0003
    6940:	c2 43 16 16 	mov.b	#0,	&0x1616	;r3 As==00
    6944:	1f 42 34 11 	mov	&0x1134,r15	
    6948:	3f 50 42 13 	add	#4930,	r15	;#0x1342
    694c:	6d 4f       	mov.b	@r15,	r13	
    694e:	0e 43       	clr	r14		
    6950:	3f 40 ec 15 	mov	#5612,	r15	;#0x15ec
    6954:	b0 12 50 45 	call	#0x4550	
    6958:	92 53 34 11 	inc	&0x1134	
    695c:	1e 43       	mov	#1,	r14	;r3 As==01
    695e:	3f 40 e0 15 	mov	#5600,	r15	;#0x15e0
    6962:	b0 12 0e 49 	call	#0x490e	
    6966:	f2 40 f0 ff eb 15 	mov.b	#-16,	&0x15eb	;#0xfff0
    696c:	7d 40 06 00 	mov.b	#6,	r13	;#0x0006
    6970:	3e 40 e0 15 	mov	#5600,	r14	;#0x15e0
    6974:	6f 43       	mov.b	#2,	r15	;r3 As==10
    6976:	b0 12 e6 65 	call	#0x65e6	
    697a:	f7 3c       	jmp	$+496    	;abs 0x6b6a
    697c:	82 93 30 11 	tst	&0x1130	
    6980:	8e 24       	jz	$+286    	;abs 0x6a9e
    6982:	5a 42 46 12 	mov.b	&0x1246,r10	
    6986:	4a 93       	tst.b	r10		
    6988:	30 20       	jnz	$+98     	;abs 0x69ea
    698a:	03 12       	push	#0		;r3 As==00
    698c:	30 12 c1 66 	push	#26305		;#0x66c1
    6990:	b0 12 ca 85 	call	#0x85ca	
    6994:	21 52       	add	#4,	r1	;r2 As==10
    6996:	92 42 1e 16 94 11 	mov	&0x161e,&0x1194	
    699c:	92 42 20 16 96 11 	mov	&0x1620,&0x1196	
    69a2:	e2 b3 7e 12 	bit.b	#2,	&0x127e	;r3 As==10
    69a6:	4f 43       	clr.b	r15		
    69a8:	4f 63       	adc.b	r15		
    69aa:	4f 9a       	cmp.b	r10,	r15	
    69ac:	43 20       	jnz	$+136    	;abs 0x6a34
    69ae:	3f 40 d5 66 	mov	#26325,	r15	;#0x66d5
    69b2:	b0 12 60 8a 	call	#0x8a60	
    69b6:	02 12       	push	r2		
    69b8:	32 c2       	dint			
    69ba:	03 43       	nop			
    69bc:	92 42 30 11 30 01 	mov	&0x1130,&0x0130	
    69c2:	b2 40 cc 0c 38 01 	mov	#3276,	&0x0138	;#0x0ccc
    69c8:	1e 42 3a 01 	mov	&0x013a,r14	
    69cc:	1f 42 3c 01 	mov	&0x013c,r15	
    69d0:	32 41       	pop	r2		
    69d2:	0f 12       	push	r15		
    69d4:	0e 12       	push	r14		
    69d6:	1d 42 94 11 	mov	&0x1194,r13	
    69da:	1e 42 96 11 	mov	&0x1196,r14	
    69de:	7f 40 05 00 	mov.b	#5,	r15	;#0x0005
    69e2:	b0 12 1a 4e 	call	#0x4e1a	
    69e6:	21 52       	add	#4,	r1	;r2 As==10
    69e8:	25 3c       	jmp	$+76     	;abs 0x6a34
    69ea:	4f 4a       	mov.b	r10,	r15	
    69ec:	7f 53       	add.b	#-1,	r15	;r3 As==11
    69ee:	6f 92       	cmp.b	#4,	r15	;r2 As==10
    69f0:	0f 2c       	jc	$+32     	;abs 0x6a10
    69f2:	b2 50 00 80 94 11 	add	#-32768,&0x1194	;#0x8000
    69f8:	82 63 96 11 	adc	&0x1196	
    69fc:	4a 4a       	mov.b	r10,	r10	
    69fe:	0a 12       	push	r10		
    6a00:	30 12 fa 66 	push	#26362		;#0x66fa
    6a04:	b0 12 ca 85 	call	#0x85ca	
    6a08:	21 52       	add	#4,	r1	;r2 As==10
    6a0a:	d2 53 46 12 	inc.b	&0x1246	
    6a0e:	12 3c       	jmp	$+38     	;abs 0x6a34
    6a10:	3f 40 33 67 	mov	#26419,	r15	;#0x6733
    6a14:	b0 12 60 8a 	call	#0x8a60	
    6a18:	e2 b3 7e 12 	bit.b	#2,	&0x127e	;r3 As==10
    6a1c:	4f 43       	clr.b	r15		
    6a1e:	4f 63       	adc.b	r15		
    6a20:	4f 93       	tst.b	r15		
    6a22:	03 24       	jz	$+8      	;abs 0x6a2a
    6a24:	f2 f0 fd ff 7e 12 	and.b	#-3,	&0x127e	;#0xfffd
    6a2a:	b2 50 00 80 94 11 	add	#-32768,&0x1194	;#0x8000
    6a30:	82 63 96 11 	adc	&0x1196	
    6a34:	03 12       	push	#0		;r3 As==00
    6a36:	30 12 f4 81 	push	#-32268	;#0x81f4
    6a3a:	1d 42 94 11 	mov	&0x1194,r13	
    6a3e:	1e 42 96 11 	mov	&0x1196,r14	
    6a42:	7f 40 03 00 	mov.b	#3,	r15	;#0x0003
    6a46:	b0 12 1a 4e 	call	#0x4e1a	
    6a4a:	21 52       	add	#4,	r1	;r2 As==10
    6a4c:	92 92 34 11 32 11 	cmp	&0x1134,&0x1132	
    6a52:	14 28       	jnc	$+42     	;abs 0x6a7c
    6a54:	02 12       	push	r2		
    6a56:	32 c2       	dint			
    6a58:	03 43       	nop			
    6a5a:	92 42 30 11 30 01 	mov	&0x1130,&0x0130	
    6a60:	b2 40 cc 0c 38 01 	mov	#3276,	&0x0138	;#0x0ccc
    6a66:	1e 42 3a 01 	mov	&0x013a,r14	
    6a6a:	1f 42 3c 01 	mov	&0x013c,r15	
    6a6e:	32 41       	pop	r2		
    6a70:	3e 50 0c fe 	add	#-500,	r14	;#0xfe0c
    6a74:	3f 63       	addc	#-1,	r15	;r3 As==11
    6a76:	0f 12       	push	r15		
    6a78:	0e 12       	push	r14		
    6a7a:	03 3c       	jmp	$+8      	;abs 0x6a82
    6a7c:	03 12       	push	#0		;r3 As==00
    6a7e:	30 12 0c 7e 	push	#32268		;#0x7e0c
    6a82:	1d 42 94 11 	mov	&0x1194,r13	
    6a86:	1e 42 96 11 	mov	&0x1196,r14	
    6a8a:	7f 40 06 00 	mov.b	#6,	r15	;#0x0006
    6a8e:	b0 12 1a 4e 	call	#0x4e1a	
    6a92:	21 52       	add	#4,	r1	;r2 As==10
    6a94:	b0 12 6e 58 	call	#0x586e	
    6a98:	3f 40 44 67 	mov	#26436,	r15	;#0x6744
    6a9c:	2b 3c       	jmp	$+88     	;abs 0x6af4
    6a9e:	1d 42 94 11 	mov	&0x1194,r13	
    6aa2:	1e 42 96 11 	mov	&0x1196,r14	
    6aa6:	3d 50 00 80 	add	#-32768,r13	;#0x8000
    6aaa:	0e 63       	adc	r14		
    6aac:	82 4d 94 11 	mov	r13,	&0x1194	
    6ab0:	82 4e 96 11 	mov	r14,	&0x1196	
    6ab4:	03 12       	push	#0		;r3 As==00
    6ab6:	30 12 f4 81 	push	#-32268	;#0x81f4
    6aba:	7f 40 03 00 	mov.b	#3,	r15	;#0x0003
    6abe:	b0 12 1a 4e 	call	#0x4e1a	
    6ac2:	21 52       	add	#4,	r1	;r2 As==10
    6ac4:	52 3c       	jmp	$+166    	;abs 0x6b6a
    6ac6:	5f 42 46 12 	mov.b	&0x1246,r15	
    6aca:	0f 12       	push	r15		
    6acc:	30 12 65 67 	push	#26469		;#0x6765
    6ad0:	b0 12 ca 85 	call	#0x85ca	
    6ad4:	21 52       	add	#4,	r1	;r2 As==10
    6ad6:	d2 53 46 12 	inc.b	&0x1246	
    6ada:	47 3c       	jmp	$+144    	;abs 0x6b6a
    6adc:	3f 40 80 67 	mov	#26496,	r15	;#0x6780
    6ae0:	b0 12 60 8a 	call	#0x8a60	
    6ae4:	6f 43       	mov.b	#2,	r15	;r3 As==10
    6ae6:	b0 12 38 52 	call	#0x5238	
    6aea:	3f 3c       	jmp	$+128    	;abs 0x6b6a
    6aec:	b0 12 34 5e 	call	#0x5e34	
    6af0:	3f 40 a9 67 	mov	#26537,	r15	;#0x67a9
    6af4:	b0 12 60 8a 	call	#0x8a60	
    6af8:	38 3c       	jmp	$+114    	;abs 0x6b6a
    6afa:	92 93 00 11 	cmp	#1,	&0x1100	;r3 As==01
    6afe:	20 20       	jnz	$+66     	;abs 0x6b40
    6b00:	34 3c       	jmp	$+106    	;abs 0x6b6a
    6b02:	5f 42 2f 11 	mov.b	&0x112f,r15	
    6b06:	0f 12       	push	r15		
    6b08:	30 12 cc 67 	push	#26572		;#0x67cc
    6b0c:	b0 12 ca 85 	call	#0x85ca	
    6b10:	21 52       	add	#4,	r1	;r2 As==10
    6b12:	5e 42 2f 11 	mov.b	&0x112f,r14	
    6b16:	1f 42 32 11 	mov	&0x1132,r15	
    6b1a:	3f 90 00 02 	cmp	#512,	r15	;#0x0200
    6b1e:	05 20       	jnz	$+12     	;abs 0x6b2a
    6b20:	c2 4e 42 13 	mov.b	r14,	&0x1342	
    6b24:	92 43 32 11 	mov	#1,	&0x1132	;r3 As==01
    6b28:	05 3c       	jmp	$+12     	;abs 0x6b34
    6b2a:	cf 4e 42 13 	mov.b	r14,	4930(r15);0x1342(r15)
    6b2e:	1f 53       	inc	r15		
    6b30:	82 4f 32 11 	mov	r15,	&0x1132	
    6b34:	5e 53       	inc.b	r14		
    6b36:	c2 4e 2f 11 	mov.b	r14,	&0x112f	
    6b3a:	d2 53 74 11 	inc.b	&0x1174	
    6b3e:	01 3c       	jmp	$+4      	;abs 0x6b42
    6b40:	6a 42       	mov.b	#4,	r10	;r2 As==10
    6b42:	5a 92 74 11 	cmp.b	&0x1174,r10	
    6b46:	dd 2f       	jc	$-68     	;abs 0x6b02
    6b48:	c2 43 74 11 	mov.b	#0,	&0x1174	;r3 As==00
    6b4c:	0d 43       	clr	r13		
    6b4e:	3e 40 05 00 	mov	#5,	r14	;#0x0005
    6b52:	7f 40 07 00 	mov.b	#7,	r15	;#0x0007
    6b56:	b0 12 f2 51 	call	#0x51f2	
    6b5a:	07 3c       	jmp	$+16     	;abs 0x6b6a
    6b5c:	1c 53       	inc	r12		
    6b5e:	35 50 0a 00 	add	#10,	r5	;#0x000a
    6b62:	3c 92       	cmp	#8,	r12	;r2 As==11
    6b64:	02 24       	jz	$+6      	;abs 0x6b6a
    6b66:	30 40 02 68 	br	#0x6802	
    6b6a:	7f 42       	mov.b	#8,	r15	;r2 As==11
    6b6c:	b0 12 7a 4c 	call	#0x4c7a	
    6b70:	35 41       	pop	r5		
    6b72:	36 41       	pop	r6		
    6b74:	37 41       	pop	r7		
    6b76:	38 41       	pop	r8		
    6b78:	39 41       	pop	r9		
    6b7a:	3a 41       	pop	r10		
    6b7c:	3b 41       	pop	r11		
    6b7e:	30 41       	ret			

00006b80 <AMQueueImplP__0__sendDone>:
    6b80:	0b 12       	push	r11		
    6b82:	0a 12       	push	r10		
    6b84:	09 12       	push	r9		
    6b86:	08 12       	push	r8		
    6b88:	07 12       	push	r7		
    6b8a:	06 12       	push	r6		
    6b8c:	48 4f       	mov.b	r15,	r8	
    6b8e:	07 4e       	mov	r14,	r7	
    6b90:	46 4d       	mov.b	r13,	r6	
    6b92:	4c 4f       	mov.b	r15,	r12	
    6b94:	0c 5c       	rla	r12		
    6b96:	8c 43 50 12 	mov	#0,	4688(r12);r3 As==00, 0x1250(r12)
    6b9a:	5c 42 2e 11 	mov.b	&0x112e,r12	
    6b9e:	1c 53       	inc	r12		
    6ba0:	3a 40 03 00 	mov	#3,	r10	;#0x0003
    6ba4:	b0 12 d0 8a 	call	#0x8ad0	
    6ba8:	49 43       	clr.b	r9		
    6baa:	4c 4e       	mov.b	r14,	r12	
    6bac:	0b 4c       	mov	r12,	r11	
    6bae:	0b 5b       	rla	r11		
    6bb0:	8b 93 50 12 	tst	4688(r11)	;0x1250(r11)
    6bb4:	12 24       	jz	$+38     	;abs 0x6bda
    6bb6:	4b 4e       	mov.b	r14,	r11	
    6bb8:	12 c3       	clrc			
    6bba:	4b 10       	rrc.b	r11		
    6bbc:	4b 11       	rra.b	r11		
    6bbe:	4b 11       	rra.b	r11		
    6bc0:	4b 4b       	mov.b	r11,	r11	
    6bc2:	5b 4b de 15 	mov.b	5598(r11),r11	;0x15de(r11)
    6bc6:	0f 4c       	mov	r12,	r15	
    6bc8:	3f f0 07 00 	and	#7,	r15	;#0x0007
    6bcc:	0f 93       	tst	r15		
    6bce:	03 24       	jz	$+8      	;abs 0x6bd6
    6bd0:	0b 11       	rra	r11		
    6bd2:	1f 83       	dec	r15		
    6bd4:	fd 23       	jnz	$-4      	;abs 0x6bd0
    6bd6:	1b f3       	and	#1,	r11	;r3 As==01
    6bd8:	0a 24       	jz	$+22     	;abs 0x6bee
    6bda:	1c 53       	inc	r12		
    6bdc:	3a 40 03 00 	mov	#3,	r10	;#0x0003
    6be0:	b0 12 d0 8a 	call	#0x8ad0	
    6be4:	59 53       	inc.b	r9		
    6be6:	79 90 03 00 	cmp.b	#3,	r9	;#0x0003
    6bea:	df 23       	jnz	$-64     	;abs 0x6baa
    6bec:	2c 3c       	jmp	$+90     	;abs 0x6c46
    6bee:	c2 4e 2e 11 	mov.b	r14,	&0x112e	
    6bf2:	5b 42 2e 11 	mov.b	&0x112e,r11	
    6bf6:	7b 90 03 00 	cmp.b	#3,	r11	;#0x0003
    6bfa:	19 2c       	jc	$+52     	;abs 0x6c2e
    6bfc:	4b 4b       	mov.b	r11,	r11	
    6bfe:	0b 5b       	rla	r11		
    6c00:	3b 50 50 12 	add	#4688,	r11	;#0x1250
    6c04:	2a 4b       	mov	@r11,	r10	
    6c06:	0f 4a       	mov	r10,	r15	
    6c08:	3f 50 06 00 	add	#6,	r15	;#0x0006
    6c0c:	b0 12 44 45 	call	#0x4544	
    6c10:	6c 4a       	mov.b	@r10,	r12	
    6c12:	7c 50 f3 ff 	add.b	#-13,	r12	;#0xfff3
    6c16:	0d 4a       	mov	r10,	r13	
    6c18:	0e 4f       	mov	r15,	r14	
    6c1a:	5f 4a 0b 00 	mov.b	11(r10),r15	;0x000b(r10)
    6c1e:	b0 12 22 65 	call	#0x6522	
    6c22:	4f 93       	tst.b	r15		
    6c24:	04 24       	jz	$+10     	;abs 0x6c2e
    6c26:	7f 40 17 00 	mov.b	#23,	r15	;#0x0017
    6c2a:	b0 12 7a 4c 	call	#0x4c7a	
    6c2e:	4d 46       	mov.b	r6,	r13	
    6c30:	0e 47       	mov	r7,	r14	
    6c32:	4f 48       	mov.b	r8,	r15	
    6c34:	b0 12 38 59 	call	#0x5938	
    6c38:	36 41       	pop	r6		
    6c3a:	37 41       	pop	r7		
    6c3c:	38 41       	pop	r8		
    6c3e:	39 41       	pop	r9		
    6c40:	3a 41       	pop	r10		
    6c42:	3b 41       	pop	r11		
    6c44:	30 41       	ret			
    6c46:	c2 49 2e 11 	mov.b	r9,	&0x112e	
    6c4a:	d3 3f       	jmp	$-88     	;abs 0x6bf2

00006c4c <CC2420ActiveMessageP__AMSend__sendDone.clone.164>:
    6c4c:	0d 4f       	mov	r15,	r13	
    6c4e:	5f 42 2e 11 	mov.b	&0x112e,r15	
    6c52:	7f 90 03 00 	cmp.b	#3,	r15	;#0x0003
    6c56:	0a 2c       	jc	$+22     	;abs 0x6c6c
    6c58:	4c 4f       	mov.b	r15,	r12	
    6c5a:	0c 5c       	rla	r12		
    6c5c:	3c 50 50 12 	add	#4688,	r12	;#0x1250
    6c60:	2d 9c       	cmp	@r12,	r13	
    6c62:	04 20       	jnz	$+10     	;abs 0x6c6c
    6c64:	4d 4e       	mov.b	r14,	r13	
    6c66:	2e 4c       	mov	@r12,	r14	
    6c68:	b0 12 80 6b 	call	#0x6b80	
    6c6c:	30 41       	ret			

00006c6e <PacketLinkP__signalDone>:
    6c6e:	0b 12       	push	r11		
    6c70:	0a 12       	push	r10		
    6c72:	4a 4f       	mov.b	r15,	r10	
    6c74:	f2 f0 fd ff 3e 13 	and.b	#-3,	&0x133e	;#0xfffd
    6c7a:	4f 43       	clr.b	r15		
    6c7c:	b0 12 1e 4f 	call	#0x4f1e	
    6c80:	1b 42 0c 12 	mov	&0x120c,r11	
    6c84:	3b 50 36 00 	add	#54,	r11	;#0x0036
    6c88:	0f 4b       	mov	r11,	r15	
    6c8a:	b0 12 ca 46 	call	#0x46ca	
    6c8e:	0f 93       	tst	r15		
    6c90:	07 24       	jz	$+16     	;abs 0x6ca0
    6c92:	1d 42 6a 15 	mov	&0x156a,r13	
    6c96:	cb 4d 01 00 	mov.b	r13,	1(r11)	;0x0001(r11)
    6c9a:	8d 10       	swpb	r13		
    6c9c:	cb 4d 00 00 	mov.b	r13,	0(r11)	;0x0000(r11)
    6ca0:	1b 42 0c 12 	mov	&0x120c,r11	
    6ca4:	7f 40 03 00 	mov.b	#3,	r15	;#0x0003
    6ca8:	b0 12 1e 4f 	call	#0x4f1e	
    6cac:	82 93 1a 16 	tst	&0x161a	
    6cb0:	06 20       	jnz	$+14     	;abs 0x6cbe
    6cb2:	f2 43 2b 11 	mov.b	#-1,	&0x112b	;r3 As==11
    6cb6:	4e 4a       	mov.b	r10,	r14	
    6cb8:	0f 4b       	mov	r11,	r15	
    6cba:	b0 12 4c 6c 	call	#0x6c4c	
    6cbe:	3a 41       	pop	r10		
    6cc0:	3b 41       	pop	r11		
    6cc2:	30 41       	ret			

00006cc4 <Msp430TimerP__1__Event__fired>:
    6cc4:	0b 12       	push	r11		
    6cc6:	0a 12       	push	r10		
    6cc8:	09 12       	push	r9		
    6cca:	08 12       	push	r8		
    6ccc:	07 12       	push	r7		
    6cce:	7f 92       	cmp.b	#8,	r15	;r2 As==11
    6cd0:	02 28       	jnc	$+6      	;abs 0x6cd6
    6cd2:	30 40 d4 6f 	br	#0x6fd4	
    6cd6:	4f 4f       	mov.b	r15,	r15	
    6cd8:	0f 5f       	rla	r15		
    6cda:	10 4f de 6c 	br	27870(r15)	;0x6cde(r15)
    6cde:	ee 6c 1e 6d 	addc.b	@r12,	27934(r14);0x6d1e(r14)
    6ce2:	c4 6e f4 6e 	addc.b	r14,	28404(r4);0x6ef4(r4)
    6ce6:	98 6f a8 6f b8 6f 	addc	28584(r15),28600(r8);0x6fa8(r15), 0x6fb8(r8)
    6cec:	c8 6f 1f 42 	addc.b	r15,	16927(r8);0x421f(r8)
    6cf0:	82 01       	.word	0x0182;	????	
    6cf2:	8f 10       	swpb	r15		
    6cf4:	5f f3       	and.b	#1,	r15	;r3 As==01
    6cf6:	04 24       	jz	$+10     	;abs 0x6d00
    6cf8:	1f 42 92 01 	mov	&0x0192,r15	
    6cfc:	30 40 d4 6f 	br	#0x6fd4	
    6d00:	b0 12 3c 45 	call	#0x453c	
    6d04:	82 93 1c 12 	tst	&0x121c	
    6d08:	06 20       	jnz	$+14     	;abs 0x6d16
    6d0a:	82 93 1e 12 	tst	&0x121e	
    6d0e:	03 20       	jnz	$+8      	;abs 0x6d16
    6d10:	7f 40 07 00 	mov.b	#7,	r15	;#0x0007
    6d14:	e9 3c       	jmp	$+468    	;abs 0x6ee8
    6d16:	b0 12 12 51 	call	#0x5112	
    6d1a:	30 40 d4 6f 	br	#0x6fd4	
    6d1e:	1f 42 84 01 	mov	&0x0184,r15	
    6d22:	8f 10       	swpb	r15		
    6d24:	5f f3       	and.b	#1,	r15	;r3 As==01
    6d26:	02 20       	jnz	$+6      	;abs 0x6d2c
    6d28:	30 40 d4 6f 	br	#0x6fd4	
    6d2c:	18 42 94 01 	mov	&0x0194,r8	
    6d30:	b0 12 e2 45 	call	#0x45e2	
    6d34:	b0 12 da 45 	call	#0x45da	
    6d38:	b0 12 f2 4f 	call	#0x4ff2	
    6d3c:	0a 4e       	mov	r14,	r10	
    6d3e:	0b 4f       	mov	r15,	r11	
    6d40:	0d 4e       	mov	r14,	r13	
    6d42:	0d 88       	sub	r8,	r13	
    6d44:	0e 43       	clr	r14		
    6d46:	0a 8d       	sub	r13,	r10	
    6d48:	0b 7e       	subc	r14,	r11	
    6d4a:	1f 42 6c 11 	mov	&0x116c,r15	
    6d4e:	3f 90 05 00 	cmp	#5,	r15	;#0x0005
    6d52:	04 24       	jz	$+10     	;abs 0x6d5c
    6d54:	3f 90 06 00 	cmp	#6,	r15	;#0x0006
    6d58:	6a 20       	jnz	$+214    	;abs 0x6e2e
    6d5a:	4e 3c       	jmp	$+158    	;abs 0x6df8
    6d5c:	b2 40 06 00 6c 11 	mov	#6,	&0x116c	;#0x0006
    6d62:	d2 43 bf 11 	mov.b	#1,	&0x11bf	;r3 As==01
    6d66:	c2 43 6e 11 	mov.b	#0,	&0x116e	;r3 As==00
    6d6a:	6f 43       	mov.b	#2,	r15	;r3 As==10
    6d6c:	b0 12 de 47 	call	#0x47de	
    6d70:	0d 4a       	mov	r10,	r13	
    6d72:	0e 4b       	mov	r11,	r14	
    6d74:	1f 42 0a 12 	mov	&0x120a,r15	
    6d78:	3f 50 30 00 	add	#48,	r15	;#0x0030
    6d7c:	b0 12 50 45 	call	#0x4550	
    6d80:	1f 42 0a 12 	mov	&0x120a,r15	
    6d84:	cf 93 2f 00 	tst.b	47(r15)	;0x002f(r15)
    6d88:	23 24       	jz	$+72     	;abs 0x6dd0
    6d8a:	67 4f       	mov.b	@r15,	r7	
    6d8c:	77 50 fb ff 	add.b	#-5,	r7	;#0xfffb
    6d90:	49 47       	mov.b	r7,	r9	
    6d92:	09 5f       	add	r15,	r9	
    6d94:	0f 49       	mov	r9,	r15	
    6d96:	b0 12 82 45 	call	#0x4582	
    6d9a:	0d 4e       	mov	r14,	r13	
    6d9c:	0e 4f       	mov	r15,	r14	
    6d9e:	0d 8a       	sub	r10,	r13	
    6da0:	0e 7b       	subc	r11,	r14	
    6da2:	0f 49       	mov	r9,	r15	
    6da4:	b0 12 50 45 	call	#0x4550	
    6da8:	b0 12 6a 4c 	call	#0x4c6a	
    6dac:	6c 42       	mov.b	#4,	r12	;r2 As==10
    6dae:	0d 49       	mov	r9,	r13	
    6db0:	4e 47       	mov.b	r7,	r14	
    6db2:	0f 43       	clr	r15		
    6db4:	b0 12 ce 53 	call	#0x53ce	
    6db8:	b0 12 34 4f 	call	#0x4f34	
    6dbc:	0f 49       	mov	r9,	r15	
    6dbe:	b0 12 82 45 	call	#0x4582	
    6dc2:	0d 4e       	mov	r14,	r13	
    6dc4:	0e 4f       	mov	r15,	r14	
    6dc6:	0d 5a       	add	r10,	r13	
    6dc8:	0e 6b       	addc	r11,	r14	
    6dca:	0f 49       	mov	r9,	r15	
    6dcc:	b0 12 50 45 	call	#0x4550	
    6dd0:	1f 42 0a 12 	mov	&0x120a,r15	
    6dd4:	1f 53       	inc	r15		
    6dd6:	b0 12 44 45 	call	#0x4544	
    6dda:	3f f0 20 00 	and	#32,	r15	;#0x0020
    6dde:	02 24       	jz	$+6      	;abs 0x6de4
    6de0:	d2 43 99 11 	mov.b	#1,	&0x1199	;r3 As==01
    6de4:	b0 12 e6 4f 	call	#0x4fe6	
    6de8:	b0 12 d2 45 	call	#0x45d2	
    6dec:	b0 12 c4 45 	call	#0x45c4	
    6df0:	4f 93       	tst.b	r15		
    6df2:	02 24       	jz	$+6      	;abs 0x6df8
    6df4:	30 40 d4 6f 	br	#0x6fd4	
    6df8:	c2 43 bf 11 	mov.b	#0,	&0x11bf	;r3 As==00
    6dfc:	b0 12 34 48 	call	#0x4834	
    6e00:	1f 42 0a 12 	mov	&0x120a,r15	
    6e04:	1f 53       	inc	r15		
    6e06:	b0 12 44 45 	call	#0x4544	
    6e0a:	3f f0 20 00 	and	#32,	r15	;#0x0020
    6e0e:	09 24       	jz	$+20     	;abs 0x6e22
    6e10:	b2 40 07 00 6c 11 	mov	#7,	&0x116c	;#0x0007
    6e16:	3e 40 32 00 	mov	#50,	r14	;#0x0032
    6e1a:	0f 43       	clr	r15		
    6e1c:	b0 12 7c 52 	call	#0x527c	
    6e20:	02 3c       	jmp	$+6      	;abs 0x6e26
    6e22:	b0 12 04 4f 	call	#0x4f04	
    6e26:	b0 12 c4 45 	call	#0x45c4	
    6e2a:	4f 93       	tst.b	r15		
    6e2c:	d3 24       	jz	$+424    	;abs 0x6fd4
    6e2e:	c2 93 6e 11 	tst.b	&0x116e	
    6e32:	26 20       	jnz	$+78     	;abs 0x6e80
    6e34:	c2 93 bf 11 	tst.b	&0x11bf	
    6e38:	25 20       	jnz	$+76     	;abs 0x6e84
    6e3a:	d2 43 bf 11 	mov.b	#1,	&0x11bf	;r3 As==01
    6e3e:	6f 43       	mov.b	#2,	r15	;r3 As==10
    6e40:	b0 12 de 47 	call	#0x47de	
    6e44:	b0 12 c4 45 	call	#0x45c4	
    6e48:	49 4f       	mov.b	r15,	r9	
    6e4a:	5f 42 d2 15 	mov.b	&0x15d2,r15	
    6e4e:	7f 92       	cmp.b	#8,	r15	;r2 As==11
    6e50:	0e 2c       	jc	$+30     	;abs 0x6e6e
    6e52:	4e 4f       	mov.b	r15,	r14	
    6e54:	5e 52 d8 15 	add.b	&0x15d8,r14	
    6e58:	3e f0 07 00 	and	#7,	r14	;#0x0007
    6e5c:	0e 5e       	rla	r14		
    6e5e:	0e 5e       	rla	r14		
    6e60:	8e 4a 78 15 	mov	r10,	5496(r14);0x1578(r14)
    6e64:	8e 4b 7a 15 	mov	r11,	5498(r14);0x157a(r14)
    6e68:	5f 53       	inc.b	r15		
    6e6a:	c2 4f d2 15 	mov.b	r15,	&0x15d2	
    6e6e:	d2 43 6e 11 	mov.b	#1,	&0x116e	;r3 As==01
    6e72:	82 48 2c 12 	mov	r8,	&0x122c	
    6e76:	b0 12 c4 45 	call	#0x45c4	
    6e7a:	4f 93       	tst.b	r15		
    6e7c:	05 24       	jz	$+12     	;abs 0x6e88
    6e7e:	aa 3c       	jmp	$+342    	;abs 0x6fd4
    6e80:	49 43       	clr.b	r9		
    6e82:	02 3c       	jmp	$+6      	;abs 0x6e88
    6e84:	59 42 6e 11 	mov.b	&0x116e,r9	
    6e88:	d2 93 bf 11 	cmp.b	#1,	&0x11bf	;r3 As==01
    6e8c:	a3 20       	jnz	$+328    	;abs 0x6fd4
    6e8e:	c2 43 bf 11 	mov.b	#0,	&0x11bf	;r3 As==00
    6e92:	b0 12 34 48 	call	#0x4834	
    6e96:	c2 43 6e 11 	mov.b	#0,	&0x116e	;r3 As==00
    6e9a:	49 93       	tst.b	r9		
    6e9c:	9b 20       	jnz	$+312    	;abs 0x6fd4
    6e9e:	18 82 2c 12 	sub	&0x122c,r8	
    6ea2:	38 90 0a 00 	cmp	#10,	r8	;#0x000a
    6ea6:	96 2c       	jc	$+302    	;abs 0x6fd4
    6ea8:	5f 42 d2 15 	mov.b	&0x15d2,r15	
    6eac:	4f 93       	tst.b	r15		
    6eae:	03 24       	jz	$+8      	;abs 0x6eb6
    6eb0:	7f 53       	add.b	#-1,	r15	;r3 As==11
    6eb2:	c2 4f d2 15 	mov.b	r15,	&0x15d2	
    6eb6:	1f 42 0a 12 	mov	&0x120a,r15	
    6eba:	0f 93       	tst	r15		
    6ebc:	8b 24       	jz	$+280    	;abs 0x6fd4
    6ebe:	b0 12 3c 48 	call	#0x483c	
    6ec2:	88 3c       	jmp	$+274    	;abs 0x6fd4
    6ec4:	1f 42 86 01 	mov	&0x0186,r15	
    6ec8:	8f 10       	swpb	r15		
    6eca:	5f f3       	and.b	#1,	r15	;r3 As==01
    6ecc:	03 24       	jz	$+8      	;abs 0x6ed4
    6ece:	1f 42 96 01 	mov	&0x0196,r15	
    6ed2:	80 3c       	jmp	$+258    	;abs 0x6fd4
    6ed4:	b0 12 fc 45 	call	#0x45fc	
    6ed8:	82 93 ba 11 	tst	&0x11ba	
    6edc:	08 20       	jnz	$+18     	;abs 0x6eee
    6ede:	82 93 bc 11 	tst	&0x11bc	
    6ee2:	05 20       	jnz	$+12     	;abs 0x6eee
    6ee4:	7f 40 0a 00 	mov.b	#10,	r15	;#0x000a
    6ee8:	b0 12 7a 4c 	call	#0x4c7a	
    6eec:	73 3c       	jmp	$+232    	;abs 0x6fd4
    6eee:	b0 12 14 5a 	call	#0x5a14	
    6ef2:	70 3c       	jmp	$+226    	;abs 0x6fd4
    6ef4:	1f 42 88 01 	mov	&0x0188,r15	
    6ef8:	8f 10       	swpb	r15		
    6efa:	5f f3       	and.b	#1,	r15	;r3 As==01
    6efc:	03 24       	jz	$+8      	;abs 0x6f04
    6efe:	1f 42 98 01 	mov	&0x0198,r15	
    6f02:	68 3c       	jmp	$+210    	;abs 0x6fd4
    6f04:	b0 12 d2 45 	call	#0x45d2	
    6f08:	82 93 fe 11 	tst	&0x11fe	
    6f0c:	42 20       	jnz	$+134    	;abs 0x6f92
    6f0e:	82 93 00 12 	tst	&0x1200	
    6f12:	3f 20       	jnz	$+128    	;abs 0x6f92
    6f14:	1f 42 6c 11 	mov	&0x116c,r15	
    6f18:	3f 50 fd ff 	add	#-3,	r15	;#0xfffd
    6f1c:	3f 90 06 00 	cmp	#6,	r15	;#0x0006
    6f20:	2b 2c       	jc	$+88     	;abs 0x6f78
    6f22:	0f 5f       	rla	r15		
    6f24:	10 4f 28 6f 	br	28456(r15)	;0x6f28(r15)
    6f28:	34 6f       	addc	@r15+,	r4	
    6f2a:	52 6f 64 6f 	addc.b	28516(r15),r2	;0x6f64(r15)
    6f2e:	78 6f       	addc.b	@r15+,	r8	
    6f30:	60 6f       	addc.b	@r15,	r0	
    6f32:	52 6f f2 b0 	addc.b	-20238(r15),r2	;0xb0f2(r15)
    6f36:	10 00       	.word	0x0010;	????	
    6f38:	20 00       	.word	0x0020;	????	
    6f3a:	08 24       	jz	$+18     	;abs 0x6f4c
    6f3c:	a2 42 6c 11 	mov	#4,	&0x116c	;r2 As==10
    6f40:	3e 40 07 00 	mov	#7,	r14	;#0x0007
    6f44:	0f 43       	clr	r15		
    6f46:	b0 12 7c 52 	call	#0x527c	
    6f4a:	16 3c       	jmp	$+46     	;abs 0x6f78
    6f4c:	b0 12 c0 52 	call	#0x52c0	
    6f50:	13 3c       	jmp	$+40     	;abs 0x6f78
    6f52:	b0 12 98 63 	call	#0x6398	
    6f56:	4f 93       	tst.b	r15		
    6f58:	0f 20       	jnz	$+32     	;abs 0x6f78
    6f5a:	b0 12 f6 52 	call	#0x52f6	
    6f5e:	0c 3c       	jmp	$+26     	;abs 0x6f78
    6f60:	4f 43       	clr.b	r15		
    6f62:	08 3c       	jmp	$+18     	;abs 0x6f74
    6f64:	b0 12 2c 4c 	call	#0x4c2c	
    6f68:	b0 12 34 48 	call	#0x4834	
    6f6c:	b0 12 e6 4f 	call	#0x4fe6	
    6f70:	7f 40 07 00 	mov.b	#7,	r15	;#0x0007
    6f74:	b0 12 04 4f 	call	#0x4f04	
    6f78:	92 93 5a 11 	cmp	#1,	&0x115a	;r3 As==01
    6f7c:	2b 20       	jnz	$+88     	;abs 0x6fd4
    6f7e:	a2 43 5a 11 	mov	#2,	&0x115a	;r3 As==10
    6f82:	b0 12 d4 57 	call	#0x57d4	
    6f86:	b0 12 e4 57 	call	#0x57e4	
    6f8a:	4f 43       	clr.b	r15		
    6f8c:	b0 12 9c 5e 	call	#0x5e9c	
    6f90:	21 3c       	jmp	$+68     	;abs 0x6fd4
    6f92:	b0 12 32 50 	call	#0x5032	
    6f96:	1e 3c       	jmp	$+62     	;abs 0x6fd4
    6f98:	1f 42 8a 01 	mov	&0x018a,r15	
    6f9c:	8f 10       	swpb	r15		
    6f9e:	5f f3       	and.b	#1,	r15	;r3 As==01
    6fa0:	19 24       	jz	$+52     	;abs 0x6fd4
    6fa2:	1f 42 9a 01 	mov	&0x019a,r15	
    6fa6:	16 3c       	jmp	$+46     	;abs 0x6fd4
    6fa8:	1f 42 8c 01 	mov	&0x018c,r15	
    6fac:	8f 10       	swpb	r15		
    6fae:	5f f3       	and.b	#1,	r15	;r3 As==01
    6fb0:	11 24       	jz	$+36     	;abs 0x6fd4
    6fb2:	1f 42 9c 01 	mov	&0x019c,r15	
    6fb6:	0e 3c       	jmp	$+30     	;abs 0x6fd4
    6fb8:	1f 42 8e 01 	mov	&0x018e,r15	
    6fbc:	8f 10       	swpb	r15		
    6fbe:	5f f3       	and.b	#1,	r15	;r3 As==01
    6fc0:	09 24       	jz	$+20     	;abs 0x6fd4
    6fc2:	1f 42 9e 01 	mov	&0x019e,r15	
    6fc6:	06 3c       	jmp	$+14     	;abs 0x6fd4
    6fc8:	92 53 14 12 	inc	&0x1214	
    6fcc:	82 63 16 12 	adc	&0x1216	
    6fd0:	92 53 56 12 	inc	&0x1256	
    6fd4:	37 41       	pop	r7		
    6fd6:	38 41       	pop	r8		
    6fd8:	39 41       	pop	r9		
    6fda:	3a 41       	pop	r10		
    6fdc:	3b 41       	pop	r11		
    6fde:	30 41       	ret			

00006fe0 <ArbiterP__0__ResourceConfigure__configure>:
    6fe0:	0b 12       	push	r11		
    6fe2:	4f 93       	tst.b	r15		
    6fe4:	65 20       	jnz	$+204    	;abs 0x70b0
    6fe6:	1f 42 14 11 	mov	&0x1114,r15	
    6fea:	12 c3       	clrc			
    6fec:	0f 10       	rrc	r15		
    6fee:	c2 4f dc 15 	mov.b	r15,	&0x15dc	
    6ff2:	b0 12 50 4b 	call	#0x4b50	
    6ff6:	4b 4f       	mov.b	r15,	r11	
    6ff8:	5f 43       	mov.b	#1,	r15	;r3 As==01
    6ffa:	b0 12 20 47 	call	#0x4720	
    6ffe:	b0 12 1e 49 	call	#0x491e	
    7002:	5f 42 17 11 	mov.b	&0x1117,r15	
    7006:	7f f0 fa ff 	and.b	#-6,	r15	;#0xfffa
    700a:	5f d3       	bis.b	#1,	r15	;r3 As==01
    700c:	c2 4f 78 00 	mov.b	r15,	&0x0078	
    7010:	d2 42 18 11 79 00 	mov.b	&0x1118,&0x0079	
    7016:	d2 42 19 11 7a 00 	mov.b	&0x1119,&0x007a	
    701c:	1f 42 14 11 	mov	&0x1114,r15	
    7020:	c2 4f 7c 00 	mov.b	r15,	&0x007c	
    7024:	8f 10       	swpb	r15		
    7026:	c2 4f 7d 00 	mov.b	r15,	&0x007d	
    702a:	d2 42 16 11 7b 00 	mov.b	&0x1116,&0x007b	
    7030:	5e 42 1a 11 	mov.b	&0x111a,r14	
    7034:	7e f0 03 00 	and.b	#3,	r14	;#0x0003
    7038:	7e 90 03 00 	cmp.b	#3,	r14	;#0x0003
    703c:	08 20       	jnz	$+18     	;abs 0x704e
    703e:	b0 12 32 47 	call	#0x4732	
    7042:	b0 12 3a 47 	call	#0x473a	
    7046:	f2 d0 30 00 05 00 	bis.b	#48,	&0x0005	;#0x0030
    704c:	1c 3c       	jmp	$+58     	;abs 0x7086
    704e:	6e 93       	cmp.b	#2,	r14	;r3 As==10
    7050:	0b 20       	jnz	$+24     	;abs 0x7068
    7052:	f2 f0 df ff 05 00 	and.b	#-33,	&0x0005	;#0xffdf
    7058:	b0 12 00 47 	call	#0x4700	
    705c:	b0 12 3a 47 	call	#0x473a	
    7060:	f2 d0 10 00 05 00 	bis.b	#16,	&0x0005	;#0x0010
    7066:	0f 3c       	jmp	$+32     	;abs 0x7086
    7068:	5e 93       	cmp.b	#1,	r14	;r3 As==01
    706a:	0b 20       	jnz	$+24     	;abs 0x7082
    706c:	f2 f0 ef ff 05 00 	and.b	#-17,	&0x0005	;#0xffef
    7072:	b0 12 f8 46 	call	#0x46f8	
    7076:	b0 12 32 47 	call	#0x4732	
    707a:	f2 d0 20 00 05 00 	bis.b	#32,	&0x0005	;#0x0020
    7080:	02 3c       	jmp	$+6      	;abs 0x7086
    7082:	b0 12 08 47 	call	#0x4708	
    7086:	4f 43       	clr.b	r15		
    7088:	b0 12 20 47 	call	#0x4720	
    708c:	f2 f0 cf ff 03 00 	and.b	#-49,	&0x0003	;#0xffcf
    7092:	b0 12 18 47 	call	#0x4718	
    7096:	4f 4b       	mov.b	r11,	r15	
    7098:	b0 12 64 4b 	call	#0x4b64	
    709c:	b0 12 50 4b 	call	#0x4b50	
    70a0:	f2 f0 cf ff 03 00 	and.b	#-49,	&0x0003	;#0xffcf
    70a6:	f2 d0 30 00 01 00 	bis.b	#48,	&0x0001	;#0x0030
    70ac:	b0 12 64 4b 	call	#0x4b64	
    70b0:	3b 41       	pop	r11		
    70b2:	30 41       	ret			

000070b4 <TelosSerialP__StdControl__start>:
    70b4:	0b 12       	push	r11		
    70b6:	b0 12 50 4b 	call	#0x4b50	
    70ba:	c2 93 38 11 	tst.b	&0x1138	
    70be:	2d 20       	jnz	$+92     	;abs 0x711a
    70c0:	e2 43 38 11 	mov.b	#2,	&0x1138	;r3 As==10
    70c4:	c2 43 66 15 	mov.b	#0,	&0x1566	;r3 As==00
    70c8:	b0 12 64 4b 	call	#0x4b64	
    70cc:	b0 12 50 4b 	call	#0x4b50	
    70d0:	4b 4f       	mov.b	r15,	r11	
    70d2:	d2 93 12 11 	cmp.b	#1,	&0x1112	;r3 As==01
    70d6:	11 20       	jnz	$+36     	;abs 0x70fa
    70d8:	5e 42 38 11 	mov.b	&0x1138,r14	
    70dc:	5e 93       	cmp.b	#1,	r14	;r3 As==01
    70de:	04 20       	jnz	$+10     	;abs 0x70e8
    70e0:	4f 43       	clr.b	r15		
    70e2:	b0 12 7a 4c 	call	#0x4c7a	
    70e6:	09 3c       	jmp	$+20     	;abs 0x70fa
    70e8:	6e 93       	cmp.b	#2,	r14	;r3 As==10
    70ea:	07 20       	jnz	$+16     	;abs 0x70fa
    70ec:	d2 42 66 15 12 11 	mov.b	&0x1566,&0x1112	
    70f2:	f2 40 03 00 38 11 	mov.b	#3,	&0x1138	;#0x0003
    70f8:	01 3c       	jmp	$+4      	;abs 0x70fc
    70fa:	4f 4b       	mov.b	r11,	r15	
    70fc:	b0 12 64 4b 	call	#0x4b64	
    7100:	c2 93 12 11 	tst.b	&0x1112	
    7104:	06 20       	jnz	$+14     	;abs 0x7112
    7106:	5f 42 12 11 	mov.b	&0x1112,r15	
    710a:	b0 12 e0 6f 	call	#0x6fe0	
    710e:	4f 43       	clr.b	r15		
    7110:	07 3c       	jmp	$+16     	;abs 0x7120
    7112:	b0 12 50 4b 	call	#0x4b50	
    7116:	c2 43 38 11 	mov.b	#0,	&0x1138	;r3 As==00
    711a:	b0 12 64 4b 	call	#0x4b64	
    711e:	5f 43       	mov.b	#1,	r15	;r3 As==01
    7120:	3b 41       	pop	r11		
    7122:	30 41       	ret			
    7124:	4f 6b       	addc.b	r11,	r15	
    7126:	61 79       	subc.b	@r9,	r1	
    7128:	20 72       	subc	#4,	r0	;r2 As==10
    712a:	61 64       	addc.b	@r4,	r1	
    712c:	69 6f       	addc.b	@r15,	r9	
    712e:	20 73       	subc	#2,	r0	;r3 As==10
    7130:	74 61       	addc.b	@r1+,	r4	
    7132:	72 74       	subc.b	@r4+,	r2	
    7134:	65 64       	addc.b	@r4,	r5	
    7136:	20 61       	addc	@r1,	r0	
    7138:	67 61       	addc.b	@r1,	r7	
    713a:	69 6e       	addc.b	@r14,	r9	
    713c:	20 00       	.word	0x0020;	????	
    713e:	20 6d       	addc	@r13,	r0	
    7140:	61 73       	subc.b	#2,	r1	;r3 As==10
    7142:	74 65       	addc.b	@r5+,	r4	
    7144:	72 20       	jnz	$+230    	;abs 0x722a
    7146:	62 6f       	addc.b	@r15,	r2	
    7148:	6f 74       	subc.b	@r4,	r15	
    714a:	65 64       	addc.b	@r4,	r5	
    714c:	20 00       	.word	0x0020;	????	
    714e:	69 6e       	addc.b	@r14,	r9	
    7150:	73 69       	.word	0x6973;	????	Illegal as 2-op instr
    7152:	64 65       	addc.b	@r5,	r4	
    7154:	20 73       	subc	#2,	r0	;r3 As==10
    7156:	74 6f       	addc.b	@r15+,	r4	
    7158:	70 20       	jnz	$+226    	;abs 0x723a
    715a:	72 61       	addc.b	@r1+,	r2	
    715c:	64 69       	addc.b	@r9,	r4	
    715e:	6f 20       	jnz	$+224    	;abs 0x723e
    7160:	00 53       	add	#0,	r0	;r3 As==00
    7162:	6c 6f       	addc.b	@r15,	r12	
    7164:	74 20       	jnz	$+234    	;abs 0x724e
    7166:	69 6e       	addc.b	@r14,	r9	
    7168:	20 62       	addc	#4,	r0	;r2 As==10
    716a:	65 61       	addc.b	@r1,	r5	
    716c:	63 6f       	.word	0x6f63;	????	Illegal as 2-op instr
    716e:	6e 20       	jnz	$+222    	;abs 0x724c
    7170:	72 65       	addc.b	@r5+,	r2	
    7172:	63 65       	.word	0x6563;	????	Illegal as 2-op instr
    7174:	69 76       	subc.b	@r6,	r9	
    7176:	65 20       	jnz	$+204    	;abs 0x7242
    7178:	25 64       	addc	@r4,	r5	
    717a:	20 0a       	.word	0x0a20;	????	
    717c:	00 66       	addc	r6,	r0	
    717e:	69 72       	subc.b	#4,	r9	;r2 As==10
    7180:	73 74       	.word	0x7473;	????	Illegal as 2-op instr
    7182:	20 62       	addc	#4,	r0	;r2 As==10
    7184:	65 61       	addc.b	@r1,	r5	
    7186:	63 6f       	.word	0x6f63;	????	Illegal as 2-op instr
    7188:	6e 20       	jnz	$+222    	;abs 0x7266
    718a:	00 52       	add	r2,	r0	
    718c:	65 63       	addc.b	#2,	r5	;r3 As==10
    718e:	65 69       	addc.b	@r9,	r5	
    7190:	76 65       	addc.b	@r5+,	r6	
    7192:	64 20       	jnz	$+202    	;abs 0x725c
    7194:	62 65       	addc.b	@r5,	r2	
    7196:	61 63       	addc.b	#2,	r1	;r3 As==10
    7198:	6f 6e       	addc.b	@r14,	r15	
    719a:	20 00       	.word	0x0020;	????	
    719c:	53 65       	.word	0x6553;	????	Illegal as 2-op instr
    719e:	6e 74       	subc.b	@r4,	r14	
    71a0:	20 73       	subc	#2,	r0	;r3 As==10
    71a2:	6c 6f       	addc.b	@r15,	r12	
    71a4:	74 20       	jnz	$+234    	;abs 0x728e
    71a6:	72 65       	addc.b	@r5+,	r2	
    71a8:	71 75       	subc.b	@r5+,	r1	
    71aa:	65 73       	subc.b	#2,	r5	;r3 As==10
    71ac:	74 20       	jnz	$+234    	;abs 0x7296
    71ae:	00 73       	sbc	r0		
    71b0:	6c 6f       	addc.b	@r15,	r12	
    71b2:	74 20       	jnz	$+234    	;abs 0x729c
    71b4:	72 65       	addc.b	@r5+,	r2	
    71b6:	71 75       	subc.b	@r5+,	r1	
    71b8:	65 73       	subc.b	#2,	r5	;r3 As==10
    71ba:	74 20       	jnz	$+234    	;abs 0x72a4
    71bc:	66 72       	subc.b	#4,	r6	;r2 As==10
    71be:	6f 6d       	addc.b	@r13,	r15	
    71c0:	20 25       	jz	$+578    	;abs 0x7402
    71c2:	64 20       	jnz	$+202    	;abs 0x728c
    71c4:	0a 00       	.word	0x000a;	????	
    71c6:	4e 6f       	addc.b	r15,	r14	
    71c8:	20 61       	addc	@r1,	r0	
    71ca:	76 61       	addc.b	@r1+,	r6	
    71cc:	69 6c       	addc.b	@r12,	r9	
    71ce:	61 62       	addc.b	#4,	r1	;r2 As==10
    71d0:	6c 65       	addc.b	@r5,	r12	
    71d2:	20 73       	subc	#2,	r0	;r3 As==10
    71d4:	6c 6f       	addc.b	@r15,	r12	
    71d6:	74 73       	subc.b	#-1,	r4	;r3 As==11
    71d8:	20 00       	.word	0x0020;	????	
    71da:	61 73       	subc.b	#2,	r1	;r3 As==10
    71dc:	73 69       	.word	0x6973;	????	Illegal as 2-op instr
    71de:	67 6e       	addc.b	@r14,	r7	
    71e0:	65 64       	addc.b	@r4,	r5	
    71e2:	20 73       	subc	#2,	r0	;r3 As==10
    71e4:	6c 6f       	addc.b	@r15,	r12	
    71e6:	74 20       	jnz	$+234    	;abs 0x72d0
    71e8:	25 64       	addc	@r4,	r5	
    71ea:	20 66       	addc	@r6,	r0	
    71ec:	6f 72       	subc.b	#4,	r15	;r2 As==10
    71ee:	20 25       	jz	$+578    	;abs 0x7430
    71f0:	64 20       	jnz	$+202    	;abs 0x72ba
    71f2:	0a 00       	.word	0x000a;	????	
    71f4:	53 65       	.word	0x6553;	????	Illegal as 2-op instr
    71f6:	6e 64       	addc.b	@r4,	r14	
    71f8:	69 6e       	addc.b	@r14,	r9	
    71fa:	67 20       	jnz	$+208    	;abs 0x72ca
    71fc:	73 6c       	.word	0x6c73;	????	Illegal as 2-op instr
    71fe:	6f 74       	subc.b	@r4,	r15	
    7200:	20 74       	subc	@r4,	r0	
    7202:	6f 20       	jnz	$+224    	;abs 0x72e2
    7204:	25 64       	addc	@r4,	r5	
    7206:	20 0a       	.word	0x0a20;	????	
    7208:	00 20       	jnz	$+2      	;abs 0x720a
    720a:	52 61 64 69 	addc.b	26980(r1),r2	;0x6964(r1)
    720e:	6f 20       	jnz	$+224    	;abs 0x72ee
    7210:	62 75       	subc.b	@r5,	r2	
    7212:	73 79       	.word	0x7973;	????	Illegal as 2-op instr
    7214:	20 00       	.word	0x0020;	????	
    7216:	52 65 63 65 	addc.b	25955(r5),r2	;0x6563(r5)
    721a:	69 76       	subc.b	@r6,	r9	
    721c:	65 64       	addc.b	@r4,	r5	
    721e:	20 73       	subc	#2,	r0	;r3 As==10
    7220:	6c 6f       	addc.b	@r15,	r12	
    7222:	74 20       	jnz	$+234    	;abs 0x730c
    7224:	25 64       	addc	@r4,	r5	
    7226:	20 0a       	.word	0x0a20;	????	
    7228:	00 52       	add	r2,	r0	
    722a:	65 63       	addc.b	#2,	r5	;r3 As==10
    722c:	69 65       	addc.b	@r5,	r9	
    722e:	76 65       	addc.b	@r5+,	r6	
    7230:	64 20       	jnz	$+202    	;abs 0x72fa
    7232:	73 6c       	.word	0x6c73;	????	Illegal as 2-op instr
    7234:	6f 74       	subc.b	@r4,	r15	
    7236:	20 61       	addc	@r1,	r0	
    7238:	6e 64       	addc.b	@r4,	r14	
    723a:	20 6e       	addc	@r14,	r0	
    723c:	6f 77       	subc.b	@r7,	r15	
    723e:	20 53       	incd	r0		
    7240:	74 6f       	addc.b	@r15+,	r4	
    7242:	70 70 65 64 	subc.b	#25701,	r0	;#0x6465
    7246:	20 72       	subc	#4,	r0	;r2 As==10
    7248:	61 64       	addc.b	@r4,	r1	
    724a:	69 6f       	addc.b	@r15,	r9	
    724c:	20 00       	.word	0x0020;	????	
    724e:	52 65 63 65 	addc.b	25955(r5),r2	;0x6563(r5)
    7252:	69 76       	subc.b	@r6,	r9	
    7254:	65 64       	addc.b	@r4,	r5	
    7256:	20 44       	br	@r4		
    7258:	61 74       	subc.b	@r4,	r1	
    725a:	61 20       	jnz	$+196    	;abs 0x731e
    725c:	25 64       	addc	@r4,	r5	
    725e:	00 20       	jnz	$+2      	;abs 0x7260
    7260:	66 72       	subc.b	#4,	r6	;r2 As==10
    7262:	6f 6d       	addc.b	@r13,	r15	
    7264:	20 25       	jz	$+578    	;abs 0x74a6
    7266:	64 20       	jnz	$+202    	;abs 0x7330
    7268:	0a 00       	.word	0x000a;	????	
    726a:	55 6e 20 69 	addc.b	26912(r14),r5	;0x6920(r14)
    726e:	64 65       	addc.b	@r5,	r4	
    7270:	6e 74       	subc.b	@r4,	r14	
    7272:	69 66       	addc.b	@r6,	r9	
    7274:	69 65       	addc.b	@r5,	r9	
    7276:	64 20       	jnz	$+202    	;abs 0x7340
    7278:	70 61       	addc.b	@r1+,	r0	
    727a:	63 6b       	.word	0x6b63;	????	Illegal as 2-op instr
    727c:	65 74       	subc.b	@r4,	r5	
    727e:	20 74       	subc	@r4,	r0	
    7280:	79 70 65 20 	subc.b	#8293,	r9	;#0x2065
	...

00007286 <SchedulerBasicP__TaskBasic__runTask>:
    7286:	0b 12       	push	r11		
    7288:	0a 12       	push	r10		
    728a:	09 12       	push	r9		
    728c:	08 12       	push	r8		
    728e:	07 12       	push	r7		
    7290:	06 12       	push	r6		
    7292:	05 12       	push	r5		
    7294:	31 50 f6 ff 	add	#-10,	r1	;#0xfff6
    7298:	7f 90 18 00 	cmp.b	#24,	r15	;#0x0018
    729c:	02 28       	jnc	$+6      	;abs 0x72a2
    729e:	30 40 2a 80 	br	#0x802a	
    72a2:	4f 4f       	mov.b	r15,	r15	
    72a4:	0f 5f       	rla	r15		
    72a6:	10 4f aa 72 	br	29354(r15)	;0x72aa(r15)
    72aa:	da 72 fa 72 7a 74 	subc.b	&0x72fa,29818(r10);0x747a(r10)
    72b0:	92 74 98 74 24 75 	subc	29848(r4),&0x7524	;0x7498(r4)
    72b6:	2e 75       	subc	@r5,	r14	
    72b8:	66 75       	subc.b	@r5,	r6	
    72ba:	c2 75 6a 76 	subc.b	r5,	&0x766a	
    72be:	9e 76 fa 76 ba 77 	subc	30458(r6),30650(r14);0x76fa(r6), 0x77ba(r14)
    72c4:	5c 78 6e 78 	subc.b	30830(r8),r12	;0x786e(r8)
    72c8:	04 79       	subc	r9,	r4	
    72ca:	30 79       	subc	@r9+,	r0	
    72cc:	3c 79       	subc	@r9+,	r12	
    72ce:	b6 7a ca 7a 	subc	@r10+,	31434(r6);0x7aca(r6)
    72d2:	f8 7a a6 7f 	subc.b	@r10+,	32678(r8);0x7fa6(r8)
    72d6:	de 7f 18 80 b0 12 	subc.b	-32744(r15),4784(r14);0x8018(r15), 0x12b0(r14)
    72dc:	50 4b d2 42 	br	17106(r11)	;0x42d2(r11)
    72e0:	66 15       	.word	0x1566;	????	
    72e2:	12 11 f2 40 	rra	&0x40f2	
    72e6:	03 00       	.word	0x0003;	????	
    72e8:	38 11       	rra	@r8+		
    72ea:	b0 12 64 4b 	call	#0x4b64	
    72ee:	5f 42 12 11 	mov.b	&0x1112,r15	
    72f2:	b0 12 e0 6f 	call	#0x6fe0	
    72f6:	30 40 2a 80 	br	#0x802a	
    72fa:	b0 12 50 4b 	call	#0x4b50	
    72fe:	c2 43 25 16 	mov.b	#0,	&0x1625	;r3 As==00
    7302:	5a 42 42 15 	mov.b	&0x1542,r10	
    7306:	5b 43       	mov.b	#1,	r11	;r3 As==01
    7308:	7a 92       	cmp.b	#8,	r10	;r2 As==11
    730a:	01 24       	jz	$+4      	;abs 0x730e
    730c:	4b 43       	clr.b	r11		
    730e:	58 43       	mov.b	#1,	r8	;r3 As==01
    7310:	7a 90 09 00 	cmp.b	#9,	r10	;#0x0009
    7314:	01 24       	jz	$+4      	;abs 0x7318
    7316:	48 43       	clr.b	r8		
    7318:	4b 93       	tst.b	r11		
    731a:	02 20       	jnz	$+6      	;abs 0x7320
    731c:	48 9b       	cmp.b	r11,	r8	
    731e:	07 24       	jz	$+16     	;abs 0x732e
    7320:	c2 43 42 15 	mov.b	#0,	&0x1542	;r3 As==00
    7324:	5e 42 5c 12 	mov.b	&0x125c,r14	
    7328:	0e 5e       	rla	r14		
    732a:	ce 43 2e 12 	mov.b	#0,	4654(r14);r3 As==00, 0x122e(r14)
    732e:	b0 12 64 4b 	call	#0x4b64	
    7332:	4b 93       	tst.b	r11		
    7334:	02 20       	jnz	$+6      	;abs 0x733a
    7336:	48 9b       	cmp.b	r11,	r8	
    7338:	1e 24       	jz	$+62     	;abs 0x7376
    733a:	b0 12 50 4b 	call	#0x4b50	
    733e:	d2 53 d4 15 	inc.b	&0x15d4	
    7342:	f2 90 43 00 21 12 	cmp.b	#67,	&0x1221	;#0x0043
    7348:	0e 20       	jnz	$+30     	;abs 0x7366
    734a:	5e 42 49 12 	mov.b	&0x1249,r14	
    734e:	c2 9e 48 12 	cmp.b	r14,	&0x1248	
    7352:	0c 24       	jz	$+26     	;abs 0x736c
    7354:	5e 53       	inc.b	r14		
    7356:	c2 4e 49 12 	mov.b	r14,	&0x1249	
    735a:	7e 90 06 00 	cmp.b	#6,	r14	;#0x0006
    735e:	06 28       	jnc	$+14     	;abs 0x736c
    7360:	c2 43 49 12 	mov.b	#0,	&0x1249	;r3 As==00
    7364:	03 3c       	jmp	$+8      	;abs 0x736c
    7366:	5b e3       	xor.b	#1,	r11	;r3 As==01
    7368:	5a 43       	mov.b	#1,	r10	;r3 As==01
    736a:	02 3c       	jmp	$+6      	;abs 0x7370
    736c:	4a 43       	clr.b	r10		
    736e:	4b 4a       	mov.b	r10,	r11	
    7370:	b0 12 64 4b 	call	#0x4b64	
    7374:	03 3c       	jmp	$+8      	;abs 0x737c
    7376:	4a 98       	cmp.b	r8,	r10	
    7378:	54 20       	jnz	$+170    	;abs 0x7422
    737a:	4b 4a       	mov.b	r10,	r11	
    737c:	b0 12 50 4b 	call	#0x4b50	
    7380:	57 42 3a 11 	mov.b	&0x113a,r7	
    7384:	b0 12 64 4b 	call	#0x4b64	
    7388:	47 93       	tst.b	r7		
    738a:	08 24       	jz	$+18     	;abs 0x739c
    738c:	b0 12 50 4b 	call	#0x4b50	
    7390:	f2 40 0a 00 42 15 	mov.b	#10,	&0x1542	;#0x000a
    7396:	b0 12 64 4b 	call	#0x4b64	
    739a:	36 3c       	jmp	$+110    	;abs 0x7408
    739c:	b0 12 50 4b 	call	#0x4b50	
    73a0:	58 42 2e 12 	mov.b	&0x122e,r8	
    73a4:	56 42 30 12 	mov.b	&0x1230,r6	
    73a8:	b0 12 64 4b 	call	#0x4b64	
    73ac:	b0 12 30 57 	call	#0x5730	
    73b0:	4f 97       	cmp.b	r7,	r15	
    73b2:	1b 20       	jnz	$+56     	;abs 0x73ea
    73b4:	48 9f       	cmp.b	r15,	r8	
    73b6:	19 20       	jnz	$+52     	;abs 0x73ea
    73b8:	b0 12 50 4b 	call	#0x4b50	
    73bc:	47 4f       	mov.b	r15,	r7	
    73be:	e2 43 2e 12 	mov.b	#2,	&0x122e	;r3 As==10
    73c2:	b0 12 30 57 	call	#0x5730	
    73c6:	4f 98       	cmp.b	r8,	r15	
    73c8:	04 20       	jnz	$+10     	;abs 0x73d2
    73ca:	5e 42 49 12 	mov.b	&0x1249,r14	
    73ce:	58 4e 4a 12 	mov.b	4682(r14),r8	;0x124a(r14)
    73d2:	c2 48 2f 12 	mov.b	r8,	&0x122f	
    73d6:	f2 40 43 00 21 12 	mov.b	#67,	&0x1221	;#0x0043
    73dc:	c2 43 5c 12 	mov.b	#0,	&0x125c	;r3 As==00
    73e0:	4f 47       	mov.b	r7,	r15	
    73e2:	b0 12 64 4b 	call	#0x4b64	
    73e6:	58 43       	mov.b	#1,	r8	;r3 As==01
    73e8:	10 3c       	jmp	$+34     	;abs 0x740a
    73ea:	4f 46       	mov.b	r6,	r15	
    73ec:	7f 53       	add.b	#-1,	r15	;r3 As==11
    73ee:	58 43       	mov.b	#1,	r8	;r3 As==01
    73f0:	48 9f       	cmp.b	r15,	r8	
    73f2:	0a 28       	jnc	$+22     	;abs 0x7408
    73f4:	b0 12 50 4b 	call	#0x4b50	
    73f8:	f2 40 45 00 21 12 	mov.b	#69,	&0x1221	;#0x0045
    73fe:	c2 48 5c 12 	mov.b	r8,	&0x125c	
    7402:	b0 12 64 4b 	call	#0x4b64	
    7406:	01 3c       	jmp	$+4      	;abs 0x740a
    7408:	48 43       	clr.b	r8		
    740a:	4a 93       	tst.b	r10		
    740c:	0a 24       	jz	$+22     	;abs 0x7422
    740e:	b0 12 50 4b 	call	#0x4b50	
    7412:	c2 4b 48 11 	mov.b	r11,	&0x1148	
    7416:	b0 12 64 4b 	call	#0x4b64	
    741a:	7f 40 05 00 	mov.b	#5,	r15	;#0x0005
    741e:	b0 12 7a 4c 	call	#0x4c7a	
    7422:	b0 12 50 4b 	call	#0x4b50	
    7426:	4b 4f       	mov.b	r15,	r11	
    7428:	f2 90 0a 00 42 15 	cmp.b	#10,	&0x1542	;#0x000a
    742e:	04 20       	jnz	$+10     	;abs 0x7438
    7430:	b0 12 f8 4d 	call	#0x4df8	
    7434:	30 40 d2 79 	br	#0x79d2	
    7438:	b0 12 64 4b 	call	#0x4b64	
    743c:	48 93       	tst.b	r8		
    743e:	02 20       	jnz	$+6      	;abs 0x7444
    7440:	30 40 2a 80 	br	#0x802a	
    7444:	b0 12 50 4b 	call	#0x4b50	
    7448:	82 43 2c 16 	mov	#0,	&0x162c	;r3 As==00
    744c:	c2 43 1a 12 	mov.b	#0,	&0x121a	;r3 As==00
    7450:	d2 43 42 15 	mov.b	#1,	&0x1542	;r3 As==01
    7454:	b0 12 64 4b 	call	#0x4b64	
    7458:	b0 12 86 5c 	call	#0x5c86	
    745c:	4f 93       	tst.b	r15		
    745e:	02 20       	jnz	$+6      	;abs 0x7464
    7460:	30 40 2a 80 	br	#0x802a	
    7464:	b0 12 50 4b 	call	#0x4b50	
    7468:	f2 40 09 00 42 15 	mov.b	#9,	&0x1542	;#0x0009
    746e:	b0 12 64 4b 	call	#0x4b64	
    7472:	b0 12 a0 54 	call	#0x54a0	
    7476:	30 40 2a 80 	br	#0x802a	
    747a:	b0 12 b4 70 	call	#0x70b4	
    747e:	b0 12 50 4b 	call	#0x4b50	
    7482:	c2 43 42 15 	mov.b	#0,	&0x1542	;r3 As==00
    7486:	c2 43 fd 11 	mov.b	#0,	&0x11fd	;r3 As==00
    748a:	b0 12 64 4b 	call	#0x4b64	
    748e:	30 40 2a 80 	br	#0x802a	
    7492:	6f 42       	mov.b	#4,	r15	;r2 As==10
    7494:	30 40 96 76 	br	#0x7696	
    7498:	b0 12 2c 5c 	call	#0x5c2c	
    749c:	4f 93       	tst.b	r15		
    749e:	02 20       	jnz	$+6      	;abs 0x74a4
    74a0:	30 40 2a 80 	br	#0x802a	
    74a4:	82 93 fa 11 	tst	&0x11fa	
    74a8:	02 24       	jz	$+6      	;abs 0x74ae
    74aa:	30 40 2a 80 	br	#0x802a	
    74ae:	82 93 22 16 	tst	&0x1622	
    74b2:	02 24       	jz	$+6      	;abs 0x74b8
    74b4:	30 40 2a 80 	br	#0x802a	
    74b8:	b0 12 50 4b 	call	#0x4b50	
    74bc:	4b 4f       	mov.b	r15,	r11	
    74be:	f2 90 03 00 38 11 	cmp.b	#3,	&0x1138	;#0x0003
    74c4:	02 24       	jz	$+6      	;abs 0x74ca
    74c6:	30 40 d2 79 	br	#0x79d2	
    74ca:	c2 93 12 11 	tst.b	&0x1112	
    74ce:	02 24       	jz	$+6      	;abs 0x74d4
    74d0:	30 40 d2 79 	br	#0x79d2	
    74d4:	5e 42 10 11 	mov.b	&0x1110,r14	
    74d8:	7e 93       	cmp.b	#-1,	r14	;r3 As==11
    74da:	18 24       	jz	$+50     	;abs 0x750c
    74dc:	4d 4e       	mov.b	r14,	r13	
    74de:	5c 4d 20 12 	mov.b	4640(r13),r12	;0x1220(r13)
    74e2:	c2 4c 10 11 	mov.b	r12,	&0x1110	
    74e6:	7c 93       	cmp.b	#-1,	r12	;r3 As==11
    74e8:	02 20       	jnz	$+6      	;abs 0x74ee
    74ea:	c2 4c 11 11 	mov.b	r12,	&0x1111	
    74ee:	fd 43 20 12 	mov.b	#-1,	4640(r13);r3 As==11, 0x1220(r13)
    74f2:	c2 4e 66 15 	mov.b	r14,	&0x1566	
    74f6:	f2 43 12 11 	mov.b	#-1,	&0x1112	;r3 As==11
    74fa:	d2 43 38 11 	mov.b	#1,	&0x1138	;r3 As==01
    74fe:	4f 43       	clr.b	r15		
    7500:	b0 12 7a 4c 	call	#0x4c7a	
    7504:	b0 12 40 4b 	call	#0x4b40	
    7508:	30 40 d2 79 	br	#0x79d2	
    750c:	d2 43 12 11 	mov.b	#1,	&0x1112	;r3 As==01
    7510:	c2 43 38 11 	mov.b	#0,	&0x1138	;r3 As==00
    7514:	b0 12 40 4b 	call	#0x4b40	
    7518:	b0 12 1e 49 	call	#0x491e	
    751c:	b0 12 08 47 	call	#0x4708	
    7520:	30 40 d2 79 	br	#0x79d2	
    7524:	82 43 42 11 	mov	#0,	&0x1142	;r3 As==00
    7528:	b0 12 50 4b 	call	#0x4b50	
    752c:	ae 3f       	jmp	$-162    	;abs 0x748a
    752e:	b0 12 50 4b 	call	#0x4b50	
    7532:	1a 42 52 11 	mov	&0x1152,r10	
    7536:	5b 42 93 11 	mov.b	&0x1193,r11	
    753a:	b0 12 64 4b 	call	#0x4b64	
    753e:	b0 12 50 4b 	call	#0x4b50	
    7542:	4e 4b       	mov.b	r11,	r14	
    7544:	0e 5e       	rla	r14		
    7546:	8e 4a 1e 11 	mov	r10,	4382(r14);0x111e(r14)
    754a:	5e 42 3c 11 	mov.b	&0x113c,r14	
    754e:	4b 93       	tst.b	r11		
    7550:	03 24       	jz	$+8      	;abs 0x7558
    7552:	7e f0 fb ff 	and.b	#-5,	r14	;#0xfffb
    7556:	02 3c       	jmp	$+6      	;abs 0x755c
    7558:	7e f0 fd ff 	and.b	#-3,	r14	;#0xfffd
    755c:	c2 4e 3c 11 	mov.b	r14,	&0x113c	
    7560:	c2 43 4e 11 	mov.b	#0,	&0x114e	;r3 As==00
    7564:	92 3f       	jmp	$-218    	;abs 0x748a
    7566:	c2 93 b6 11 	tst.b	&0x11b6	
    756a:	28 20       	jnz	$+82     	;abs 0x75bc
    756c:	1a 42 74 15 	mov	&0x1574,r10	
    7570:	1b 42 76 15 	mov	&0x1576,r11	
    7574:	b0 12 50 4b 	call	#0x4b50	
    7578:	18 42 1c 12 	mov	&0x121c,r8	
    757c:	19 42 1e 12 	mov	&0x121e,r9	
    7580:	18 52 22 12 	add	&0x1222,r8	
    7584:	19 62 24 12 	addc	&0x1224,r9	
    7588:	b0 12 64 4b 	call	#0x4b64	
    758c:	82 4a 74 15 	mov	r10,	&0x1574	
    7590:	82 4b 76 15 	mov	r11,	&0x1576	
    7594:	c2 43 b6 11 	mov.b	#0,	&0x11b6	;r3 As==00
    7598:	b0 12 50 4b 	call	#0x4b50	
    759c:	82 48 22 12 	mov	r8,	&0x1222	
    75a0:	82 49 24 12 	mov	r9,	&0x1224	
    75a4:	82 4a 1c 12 	mov	r10,	&0x121c	
    75a8:	82 4b 1e 12 	mov	r11,	&0x121e	
    75ac:	81 4f 08 00 	mov	r15,	8(r1)	;0x0008(r1)
    75b0:	b0 12 12 51 	call	#0x5112	
    75b4:	1f 41 08 00 	mov	8(r1),	r15	;0x0008(r1)
    75b8:	b0 12 64 4b 	call	#0x4b64	
    75bc:	b0 12 f2 4f 	call	#0x4ff2	
    75c0:	3a 3c       	jmp	$+118    	;abs 0x7636
    75c2:	b0 12 f2 4f 	call	#0x4ff2	
    75c6:	08 4e       	mov	r14,	r8	
    75c8:	09 4f       	mov	r15,	r9	
    75ca:	b0 12 3c 45 	call	#0x453c	
    75ce:	36 40 62 12 	mov	#4706,	r6	;#0x1262
    75d2:	45 43       	clr.b	r5		
    75d4:	3a 43       	mov	#-1,	r10	;r3 As==11
    75d6:	3b 40 ff 7f 	mov	#32767,	r11	;#0x7fff
    75da:	07 43       	clr	r7		
    75dc:	0f 47       	mov	r7,	r15	
    75de:	0f 5f       	rla	r15		
    75e0:	0f 5f       	rla	r15		
    75e2:	0f 57       	add	r7,	r15	
    75e4:	0f 5f       	rla	r15		
    75e6:	ef b3 6a 12 	bit.b	#2,	4714(r15);r3 As==10, 0x126a(r15)
    75ea:	14 24       	jz	$+42     	;abs 0x7614
    75ec:	0c 48       	mov	r8,	r12	
    75ee:	0d 49       	mov	r9,	r13	
    75f0:	2c 86       	sub	@r6,	r12	
    75f2:	1d 76 02 00 	subc	2(r6),	r13	;0x0002(r6)
    75f6:	1e 46 04 00 	mov	4(r6),	r14	;0x0004(r6)
    75fa:	1f 46 06 00 	mov	6(r6),	r15	;0x0006(r6)
    75fe:	0e 8c       	sub	r12,	r14	
    7600:	0f 7d       	subc	r13,	r15	
    7602:	0f 9b       	cmp	r11,	r15	
    7604:	04 38       	jl	$+10     	;abs 0x760e
    7606:	0f 9b       	cmp	r11,	r15	
    7608:	05 20       	jnz	$+12     	;abs 0x7614
    760a:	0e 9a       	cmp	r10,	r14	
    760c:	03 2c       	jc	$+8      	;abs 0x7614
    760e:	0a 4e       	mov	r14,	r10	
    7610:	0b 4f       	mov	r15,	r11	
    7612:	55 43       	mov.b	#1,	r5	;r3 As==01
    7614:	17 53       	inc	r7		
    7616:	36 50 0a 00 	add	#10,	r6	;#0x000a
    761a:	37 92       	cmp	#8,	r7	;r2 As==11
    761c:	df 23       	jnz	$-64     	;abs 0x75dc
    761e:	45 93       	tst.b	r5		
    7620:	02 20       	jnz	$+6      	;abs 0x7626
    7622:	30 40 2a 80 	br	#0x802a	
    7626:	1b 93       	cmp	#1,	r11	;r3 As==01
    7628:	0a 34       	jge	$+22     	;abs 0x763e
    762a:	0b 93       	tst	r11		
    762c:	02 20       	jnz	$+6      	;abs 0x7632
    762e:	0a 93       	tst	r10		
    7630:	06 20       	jnz	$+14     	;abs 0x763e
    7632:	0e 48       	mov	r8,	r14	
    7634:	0f 49       	mov	r9,	r15	
    7636:	b0 12 ea 67 	call	#0x67ea	
    763a:	30 40 2a 80 	br	#0x802a	
    763e:	82 4a 74 15 	mov	r10,	&0x1574	
    7642:	82 4b 76 15 	mov	r11,	&0x1576	
    7646:	d2 43 b6 11 	mov.b	#1,	&0x11b6	;r3 As==01
    764a:	b0 12 50 4b 	call	#0x4b50	
    764e:	82 48 22 12 	mov	r8,	&0x1222	
    7652:	82 49 24 12 	mov	r9,	&0x1224	
    7656:	82 4a 1c 12 	mov	r10,	&0x121c	
    765a:	82 4b 1e 12 	mov	r11,	&0x121e	
    765e:	81 4f 08 00 	mov	r15,	8(r1)	;0x0008(r1)
    7662:	b0 12 12 51 	call	#0x5112	
    7666:	30 40 c2 7a 	br	#0x7ac2	
    766a:	1b 42 0c 12 	mov	&0x120c,r11	
    766e:	0f 4b       	mov	r11,	r15	
    7670:	3f 50 36 00 	add	#54,	r15	;#0x0036
    7674:	b0 12 ca 46 	call	#0x46ca	
    7678:	0f 93       	tst	r15		
    767a:	03 24       	jz	$+8      	;abs 0x7682
    767c:	0f 4b       	mov	r11,	r15	
    767e:	b0 12 ac 46 	call	#0x46ac	
    7682:	1f 42 0c 12 	mov	&0x120c,r15	
    7686:	b0 12 b6 63 	call	#0x63b6	
    768a:	4f 93       	tst.b	r15		
    768c:	02 20       	jnz	$+6      	;abs 0x7692
    768e:	30 40 2a 80 	br	#0x802a	
    7692:	7f 40 09 00 	mov.b	#9,	r15	;#0x0009
    7696:	b0 12 7a 4c 	call	#0x4c7a	
    769a:	30 40 2a 80 	br	#0x802a	
    769e:	c2 93 7f 11 	tst.b	&0x117f	
    76a2:	28 20       	jnz	$+82     	;abs 0x76f4
    76a4:	1a 42 26 13 	mov	&0x1326,r10	
    76a8:	1b 42 28 13 	mov	&0x1328,r11	
    76ac:	b0 12 50 4b 	call	#0x4b50	
    76b0:	18 42 ba 11 	mov	&0x11ba,r8	
    76b4:	19 42 bc 11 	mov	&0x11bc,r9	
    76b8:	18 52 7a 11 	add	&0x117a,r8	
    76bc:	19 62 7c 11 	addc	&0x117c,r9	
    76c0:	b0 12 64 4b 	call	#0x4b64	
    76c4:	82 4a 26 13 	mov	r10,	&0x1326	
    76c8:	82 4b 28 13 	mov	r11,	&0x1328	
    76cc:	c2 43 7f 11 	mov.b	#0,	&0x117f	;r3 As==00
    76d0:	b0 12 50 4b 	call	#0x4b50	
    76d4:	82 48 7a 11 	mov	r8,	&0x117a	
    76d8:	82 49 7c 11 	mov	r9,	&0x117c	
    76dc:	82 4a ba 11 	mov	r10,	&0x11ba	
    76e0:	82 4b bc 11 	mov	r11,	&0x11bc	
    76e4:	81 4f 08 00 	mov	r15,	8(r1)	;0x0008(r1)
    76e8:	b0 12 14 5a 	call	#0x5a14	
    76ec:	1f 41 08 00 	mov	8(r1),	r15	;0x0008(r1)
    76f0:	b0 12 64 4b 	call	#0x4b64	
    76f4:	b0 12 a4 59 	call	#0x59a4	
    76f8:	46 3c       	jmp	$+142    	;abs 0x7786
    76fa:	b0 12 a4 59 	call	#0x59a4	
    76fe:	08 4e       	mov	r14,	r8	
    7700:	09 4f       	mov	r15,	r9	
    7702:	b0 12 fc 45 	call	#0x45fc	
    7706:	57 42 34 13 	mov.b	&0x1334,r7	
    770a:	67 f3       	and.b	#2,	r7	;r3 As==10
    770c:	13 24       	jz	$+40     	;abs 0x7734
    770e:	0e 48       	mov	r8,	r14	
    7710:	0f 49       	mov	r9,	r15	
    7712:	1e 82 2c 13 	sub	&0x132c,r14	
    7716:	1f 72 2e 13 	subc	&0x132e,r15	
    771a:	1a 42 30 13 	mov	&0x1330,r10	
    771e:	1b 42 32 13 	mov	&0x1332,r11	
    7722:	0a 8e       	sub	r14,	r10	
    7724:	0b 7f       	subc	r15,	r11	
    7726:	3a 93       	cmp	#-1,	r10	;r3 As==11
    7728:	09 20       	jnz	$+20     	;abs 0x773c
    772a:	3b 90 ff 7f 	cmp	#32767,	r11	;#0x7fff
    772e:	06 20       	jnz	$+14     	;abs 0x773c
    7730:	47 43       	clr.b	r7		
    7732:	05 3c       	jmp	$+12     	;abs 0x773e
    7734:	3a 43       	mov	#-1,	r10	;r3 As==11
    7736:	3b 40 ff 7f 	mov	#32767,	r11	;#0x7fff
    773a:	01 3c       	jmp	$+4      	;abs 0x773e
    773c:	57 43       	mov.b	#1,	r7	;r3 As==01
    773e:	e2 b3 3e 13 	bit.b	#2,	&0x133e	;r3 As==10
    7742:	15 24       	jz	$+44     	;abs 0x776e
    7744:	0c 48       	mov	r8,	r12	
    7746:	0d 49       	mov	r9,	r13	
    7748:	1c 82 36 13 	sub	&0x1336,r12	
    774c:	1d 72 38 13 	subc	&0x1338,r13	
    7750:	1e 42 3a 13 	mov	&0x133a,r14	
    7754:	1f 42 3c 13 	mov	&0x133c,r15	
    7758:	0e 8c       	sub	r12,	r14	
    775a:	0f 7d       	subc	r13,	r15	
    775c:	0f 9b       	cmp	r11,	r15	
    775e:	04 38       	jl	$+10     	;abs 0x7768
    7760:	0f 9b       	cmp	r11,	r15	
    7762:	05 20       	jnz	$+12     	;abs 0x776e
    7764:	0e 9a       	cmp	r10,	r14	
    7766:	03 2c       	jc	$+8      	;abs 0x776e
    7768:	0a 4e       	mov	r14,	r10	
    776a:	0b 4f       	mov	r15,	r11	
    776c:	04 3c       	jmp	$+10     	;abs 0x7776
    776e:	47 93       	tst.b	r7		
    7770:	02 20       	jnz	$+6      	;abs 0x7776
    7772:	30 40 2a 80 	br	#0x802a	
    7776:	1b 93       	cmp	#1,	r11	;r3 As==01
    7778:	0a 34       	jge	$+22     	;abs 0x778e
    777a:	0b 93       	tst	r11		
    777c:	02 20       	jnz	$+6      	;abs 0x7782
    777e:	0a 93       	tst	r10		
    7780:	06 20       	jnz	$+14     	;abs 0x778e
    7782:	0e 48       	mov	r8,	r14	
    7784:	0f 49       	mov	r9,	r15	
    7786:	b0 12 1c 5b 	call	#0x5b1c	
    778a:	30 40 2a 80 	br	#0x802a	
    778e:	82 4a 26 13 	mov	r10,	&0x1326	
    7792:	82 4b 28 13 	mov	r11,	&0x1328	
    7796:	d2 43 7f 11 	mov.b	#1,	&0x117f	;r3 As==01
    779a:	b0 12 50 4b 	call	#0x4b50	
    779e:	82 48 7a 11 	mov	r8,	&0x117a	
    77a2:	82 49 7c 11 	mov	r9,	&0x117c	
    77a6:	82 4a ba 11 	mov	r10,	&0x11ba	
    77aa:	82 4b bc 11 	mov	r11,	&0x11bc	
    77ae:	81 4f 08 00 	mov	r15,	8(r1)	;0x0008(r1)
    77b2:	b0 12 14 5a 	call	#0x5a14	
    77b6:	30 40 c2 7a 	br	#0x7ac2	
    77ba:	b0 12 50 4b 	call	#0x4b50	
    77be:	4b 4f       	mov.b	r15,	r11	
    77c0:	b0 12 34 48 	call	#0x4834	
    77c4:	92 43 6c 11 	mov	#1,	&0x116c	;r3 As==01
    77c8:	c2 43 6e 11 	mov.b	#0,	&0x116e	;r3 As==00
    77cc:	c2 43 99 11 	mov.b	#0,	&0x1199	;r3 As==00
    77d0:	c2 43 b7 11 	mov.b	#0,	&0x11b7	;r3 As==00
    77d4:	4f 4b       	mov.b	r11,	r15	
    77d6:	b0 12 64 4b 	call	#0x4b64	
    77da:	b0 12 50 4b 	call	#0x4b50	
    77de:	81 4f 08 00 	mov	r15,	8(r1)	;0x0008(r1)
    77e2:	b0 12 88 48 	call	#0x4888	
    77e6:	92 43 b2 11 	mov	#1,	&0x11b2	;r3 As==01
    77ea:	c2 43 fc 11 	mov.b	#0,	&0x11fc	;r3 As==00
    77ee:	f2 f0 fe ff 25 00 	and.b	#-2,	&0x0025	;#0xfffe
    77f4:	b0 12 a4 46 	call	#0x46a4	
    77f8:	d2 d3 24 00 	bis.b	#1,	&0x0024	;r3 As==01
    77fc:	d2 d3 25 00 	bis.b	#1,	&0x0025	;r3 As==01
    7800:	1f 41 08 00 	mov	8(r1),	r15	;0x0008(r1)
    7804:	b0 12 64 4b 	call	#0x4b64	
    7808:	b0 12 50 4b 	call	#0x4b50	
    780c:	4b 4f       	mov.b	r15,	r11	
    780e:	a2 92 5a 11 	cmp	#4,	&0x115a	;r2 As==10
    7812:	05 20       	jnz	$+12     	;abs 0x781e
    7814:	7f 40 03 00 	mov.b	#3,	r15	;#0x0003
    7818:	b0 12 fc 4b 	call	#0x4bfc	
    781c:	4f 4b       	mov.b	r11,	r15	
    781e:	b0 12 64 4b 	call	#0x4b64	
    7822:	b0 12 50 4b 	call	#0x4b50	
    7826:	4b 4f       	mov.b	r15,	r11	
    7828:	b0 12 34 4f 	call	#0x4f34	
    782c:	4f 43       	clr.b	r15		
    782e:	b0 12 42 4f 	call	#0x4f42	
    7832:	4f 4b       	mov.b	r11,	r15	
    7834:	b0 12 64 4b 	call	#0x4b64	
    7838:	6f 43       	mov.b	#2,	r15	;r3 As==10
    783a:	b0 12 4c 57 	call	#0x574c	
    783e:	3f 40 24 71 	mov	#28964,	r15	;#0x7124
    7842:	b0 12 60 8a 	call	#0x8a60	
    7846:	d2 93 00 11 	cmp.b	#1,	&0x1100	;r3 As==01
    784a:	02 24       	jz	$+6      	;abs 0x7850
    784c:	30 40 2a 80 	br	#0x802a	
    7850:	4f 43       	clr.b	r15		
    7852:	b0 12 38 52 	call	#0x5238	
    7856:	3f 40 3e 71 	mov	#28990,	r15	;#0x713e
    785a:	05 3c       	jmp	$+12     	;abs 0x7866
    785c:	4f 43       	clr.b	r15		
    785e:	b0 12 4c 57 	call	#0x574c	
    7862:	3f 40 4e 71 	mov	#29006,	r15	;#0x714e
    7866:	b0 12 60 8a 	call	#0x8a60	
    786a:	30 40 2a 80 	br	#0x802a	
    786e:	b0 12 50 4b 	call	#0x4b50	
    7872:	58 42 58 11 	mov.b	&0x1158,r8	
    7876:	b0 12 64 4b 	call	#0x4b64	
    787a:	7f 40 03 00 	mov.b	#3,	r15	;#0x0003
    787e:	b0 12 36 4c 	call	#0x4c36	
    7882:	4f 93       	tst.b	r15		
    7884:	03 24       	jz	$+8      	;abs 0x788c
    7886:	b0 12 f4 57 	call	#0x57f4	
    788a:	03 3c       	jmp	$+8      	;abs 0x7892
    788c:	6f 43       	mov.b	#2,	r15	;r3 As==10
    788e:	b0 12 4c 57 	call	#0x574c	
    7892:	1a 42 44 12 	mov	&0x1244,r10	
    7896:	b0 12 08 5b 	call	#0x5b08	
    789a:	5f 93       	cmp.b	#1,	r15	;r3 As==01
    789c:	2e 20       	jnz	$+94     	;abs 0x78fa
    789e:	1b 42 6a 15 	mov	&0x156a,r11	
    78a2:	1b 53       	inc	r11		
    78a4:	82 4b 6a 15 	mov	r11,	&0x156a	
    78a8:	ca 93 2e 00 	tst.b	46(r10)	;0x002e(r10)
    78ac:	02 24       	jz	$+6      	;abs 0x78b2
    78ae:	4f 43       	clr.b	r15		
    78b0:	25 3c       	jmp	$+76     	;abs 0x78fc
    78b2:	1f 42 0c 12 	mov	&0x120c,r15	
    78b6:	3f 50 36 00 	add	#54,	r15	;#0x0036
    78ba:	b0 12 ca 46 	call	#0x46ca	
    78be:	0b 9f       	cmp	r15,	r11	
    78c0:	1c 2c       	jc	$+58     	;abs 0x78fa
    78c2:	1f 42 0c 12 	mov	&0x120c,r15	
    78c6:	3f 50 38 00 	add	#56,	r15	;#0x0038
    78ca:	b0 12 ca 46 	call	#0x46ca	
    78ce:	0b 4f       	mov	r15,	r11	
    78d0:	0f 93       	tst	r15		
    78d2:	02 20       	jnz	$+6      	;abs 0x78d8
    78d4:	30 40 92 76 	br	#0x7692	
    78d8:	b0 12 a4 59 	call	#0x59a4	
    78dc:	82 4e 36 13 	mov	r14,	&0x1336	
    78e0:	82 4f 38 13 	mov	r15,	&0x1338	
    78e4:	82 4b 3a 13 	mov	r11,	&0x133a	
    78e8:	82 43 3c 13 	mov	#0,	&0x133c	;r3 As==00
    78ec:	f2 d0 03 00 3e 13 	bis.b	#3,	&0x133e	;#0x0003
    78f2:	7f 40 0b 00 	mov.b	#11,	r15	;#0x000b
    78f6:	30 40 96 76 	br	#0x7696	
    78fa:	4f 48       	mov.b	r8,	r15	
    78fc:	b0 12 6e 6c 	call	#0x6c6e	
    7900:	30 40 2a 80 	br	#0x802a	
    7904:	b0 12 50 4b 	call	#0x4b50	
    7908:	4b 4f       	mov.b	r15,	r11	
    790a:	c2 93 28 16 	tst.b	&0x1628	
    790e:	02 24       	jz	$+6      	;abs 0x7914
    7910:	30 40 8a 74 	br	#0x748a	
    7914:	d2 43 28 16 	mov.b	#1,	&0x1628	;r3 As==01
    7918:	a2 92 5a 11 	cmp	#4,	&0x115a	;r2 As==10
    791c:	04 20       	jnz	$+10     	;abs 0x7926
    791e:	5f 43       	mov.b	#1,	r15	;r3 As==01
    7920:	b0 12 9c 5e 	call	#0x5e9c	
    7924:	56 3c       	jmp	$+174    	;abs 0x79d2
    7926:	7f 40 10 00 	mov.b	#16,	r15	;#0x0010
    792a:	b0 12 7a 4c 	call	#0x4c7a	
    792e:	51 3c       	jmp	$+164    	;abs 0x79d2
    7930:	b0 12 50 4b 	call	#0x4b50	
    7934:	c2 43 28 16 	mov.b	#0,	&0x1628	;r3 As==00
    7938:	30 40 8a 74 	br	#0x748a	
    793c:	b0 12 50 4b 	call	#0x4b50	
    7940:	5b 42 24 11 	mov.b	&0x1124,r11	
    7944:	b0 12 64 4b 	call	#0x4b64	
    7948:	7b 90 05 00 	cmp.b	#5,	r11	;#0x0005
    794c:	02 28       	jnc	$+6      	;abs 0x7952
    794e:	30 40 2a 80 	br	#0x802a	
    7952:	4f 4b       	mov.b	r11,	r15	
    7954:	0f 5f       	rla	r15		
    7956:	10 4f 5a 79 	br	31066(r15)	;0x795a(r15)
    795a:	64 79       	subc.b	@r9,	r4	
    795c:	d8 79 12 7a 56 7a 	subc.b	31250(r9),31318(r8);0x7a12(r9), 0x7a56(r8)
    7962:	ae 7a b0 12 	subc	@r10,	4784(r14);0x12b0(r14)
    7966:	6a 4c       	mov.b	@r12,	r10	
    7968:	b0 12 50 4b 	call	#0x4b50	
    796c:	4b 4f       	mov.b	r15,	r11	
    796e:	a2 93 5a 11 	cmp	#2,	&0x115a	;r3 As==10
    7972:	02 24       	jz	$+6      	;abs 0x7978
    7974:	30 40 8a 74 	br	#0x748a	
    7978:	b2 40 03 00 5a 11 	mov	#3,	&0x115a	;#0x0003
    797e:	3e 40 18 00 	mov	#24,	r14	;#0x0018
    7982:	7f 40 1d 00 	mov.b	#29,	r15	;#0x001d
    7986:	b0 12 8a 53 	call	#0x538a	
    798a:	f2 f0 ef ff 25 00 	and.b	#-17,	&0x0025	;#0xffef
    7990:	b0 12 f0 46 	call	#0x46f0	
    7994:	f2 f0 ef ff 24 00 	and.b	#-17,	&0x0024	;#0xffef
    799a:	f2 d0 10 00 25 00 	bis.b	#16,	&0x0025	;#0x0010
    79a0:	5f 43       	mov.b	#1,	r15	;r3 As==01
    79a2:	b0 12 fc 4b 	call	#0x4bfc	
    79a6:	3e 40 7f 02 	mov	#639,	r14	;#0x027f
    79aa:	7f 40 1c 00 	mov.b	#28,	r15	;#0x001c
    79ae:	b0 12 8a 53 	call	#0x538a	
    79b2:	b0 12 ac 5b 	call	#0x5bac	
    79b6:	b0 12 d8 5b 	call	#0x5bd8	
    79ba:	3e 40 56 2a 	mov	#10838,	r14	;#0x2a56
    79be:	7f 40 17 00 	mov.b	#23,	r15	;#0x0017
    79c2:	b0 12 8a 53 	call	#0x538a	
    79c6:	3e 40 ff 80 	mov	#-32513,r14	;#0x80ff
    79ca:	7f 40 15 00 	mov.b	#21,	r15	;#0x0015
    79ce:	b0 12 8a 53 	call	#0x538a	
    79d2:	4f 4b       	mov.b	r11,	r15	
    79d4:	30 40 8a 74 	br	#0x748a	
    79d8:	b0 12 6a 4c 	call	#0x4c6a	
    79dc:	7f 40 06 00 	mov.b	#6,	r15	;#0x0006
    79e0:	b0 12 fc 4b 	call	#0x4bfc	
    79e4:	b0 12 ac 5b 	call	#0x5bac	
    79e8:	b0 12 d8 5b 	call	#0x5bd8	
    79ec:	b0 12 48 54 	call	#0x5448	
    79f0:	b0 12 34 4f 	call	#0x4f34	
    79f4:	b0 12 6a 4c 	call	#0x4c6a	
    79f8:	7f 40 03 00 	mov.b	#3,	r15	;#0x0003
    79fc:	b0 12 fc 4b 	call	#0x4bfc	
    7a00:	b0 12 34 4f 	call	#0x4f34	
    7a04:	5f 43       	mov.b	#1,	r15	;r3 As==01
    7a06:	b0 12 42 4f 	call	#0x4f42	
    7a0a:	7f 40 10 00 	mov.b	#16,	r15	;#0x0010
    7a0e:	30 40 96 76 	br	#0x7696	
    7a12:	b0 12 6a 4c 	call	#0x4c6a	
    7a16:	b0 12 50 4b 	call	#0x4b50	
    7a1a:	4a 4f       	mov.b	r15,	r10	
    7a1c:	b0 12 e2 4b 	call	#0x4be2	
    7a20:	4b 4f       	mov.b	r15,	r11	
    7a22:	4f 93       	tst.b	r15		
    7a24:	04 24       	jz	$+10     	;abs 0x7a2e
    7a26:	4f 4a       	mov.b	r10,	r15	
    7a28:	b0 12 64 4b 	call	#0x4b64	
    7a2c:	0d 3c       	jmp	$+28     	;abs 0x7a48
    7a2e:	4f 4a       	mov.b	r10,	r15	
    7a30:	b0 12 64 4b 	call	#0x4b64	
    7a34:	7f 40 53 00 	mov.b	#83,	r15	;#0x0053
    7a38:	b0 12 d6 46 	call	#0x46d6	
    7a3c:	4f 4b       	mov.b	r11,	r15	
    7a3e:	b0 12 d6 46 	call	#0x46d6	
    7a42:	4f 4b       	mov.b	r11,	r15	
    7a44:	b0 12 d6 46 	call	#0x46d6	
    7a48:	b0 12 34 4f 	call	#0x4f34	
    7a4c:	6f 43       	mov.b	#2,	r15	;r3 As==10
    7a4e:	b0 12 42 4f 	call	#0x4f42	
    7a52:	30 40 2a 80 	br	#0x802a	
    7a56:	b0 12 50 4b 	call	#0x4b50	
    7a5a:	5b 42 6c 11 	mov.b	&0x116c,r11	
    7a5e:	b0 12 64 4b 	call	#0x4b64	
    7a62:	6b 92       	cmp.b	#4,	r11	;r2 As==10
    7a64:	08 24       	jz	$+18     	;abs 0x7a76
    7a66:	7b 92       	cmp.b	#8,	r11	;r2 As==11
    7a68:	0a 24       	jz	$+22     	;abs 0x7a7e
    7a6a:	6b 93       	cmp.b	#2,	r11	;r3 As==10
    7a6c:	1c 20       	jnz	$+58     	;abs 0x7aa6
    7a6e:	b0 12 60 57 	call	#0x5760	
    7a72:	30 40 2a 80 	br	#0x802a	
    7a76:	b0 12 f6 52 	call	#0x52f6	
    7a7a:	30 40 2a 80 	br	#0x802a	
    7a7e:	b0 12 6a 4c 	call	#0x4c6a	
    7a82:	b0 12 2c 4c 	call	#0x4c2c	
    7a86:	b0 12 34 4f 	call	#0x4f34	
    7a8a:	b0 12 e6 4f 	call	#0x4fe6	
    7a8e:	b0 12 50 4b 	call	#0x4b50	
    7a92:	92 43 6c 11 	mov	#1,	&0x116c	;r3 As==01
    7a96:	b0 12 64 4b 	call	#0x4b64	
    7a9a:	7f 40 03 00 	mov.b	#3,	r15	;#0x0003
    7a9e:	b0 12 e8 4e 	call	#0x4ee8	
    7aa2:	30 40 2a 80 	br	#0x802a	
    7aa6:	b0 12 e6 4f 	call	#0x4fe6	
    7aaa:	30 40 2a 80 	br	#0x802a	
    7aae:	b0 12 d8 4e 	call	#0x4ed8	
    7ab2:	30 40 2a 80 	br	#0x802a	
    7ab6:	b0 12 50 4b 	call	#0x4b50	
    7aba:	81 4f 08 00 	mov	r15,	8(r1)	;0x0008(r1)
    7abe:	b0 12 cc 60 	call	#0x60cc	
    7ac2:	1f 41 08 00 	mov	8(r1),	r15	;0x0008(r1)
    7ac6:	30 40 8a 74 	br	#0x748a	
    7aca:	b0 12 50 4b 	call	#0x4b50	
    7ace:	d2 42 06 12 27 11 	mov.b	&0x1206,&0x1127	
    7ad4:	f2 40 03 00 5e 11 	mov.b	#3,	&0x115e	;#0x0003
    7ada:	b0 12 64 4b 	call	#0x4b64	
    7ade:	5f 42 27 11 	mov.b	&0x1127,r15	
    7ae2:	b0 12 2e 5f 	call	#0x5f2e	
    7ae6:	c2 93 27 11 	tst.b	&0x1127	
    7aea:	02 24       	jz	$+6      	;abs 0x7af0
    7aec:	30 40 2a 80 	br	#0x802a	
    7af0:	7f 40 11 00 	mov.b	#17,	r15	;#0x0011
    7af4:	30 40 96 76 	br	#0x7696	
    7af8:	1d 42 76 11 	mov	&0x1176,r13	
    7afc:	0e 4d       	mov	r13,	r14	
    7afe:	3e 50 2a 00 	add	#42,	r14	;#0x002a
    7b02:	67 4d       	mov.b	@r13,	r7	
    7b04:	4f 47       	mov.b	r7,	r15	
    7b06:	0f 5d       	add	r13,	r15	
    7b08:	6c 4f       	mov.b	@r15,	r12	
    7b0a:	4c 5c       	rla.b	r12		
    7b0c:	4c 43       	clr.b	r12		
    7b0e:	4c 6c       	rlc.b	r12		
    7b10:	ce 4c 03 00 	mov.b	r12,	3(r14)	;0x0003(r14)
    7b14:	6d 4f       	mov.b	@r15,	r13	
    7b16:	7d f0 7f 00 	and.b	#127,	r13	;#0x007f
    7b1a:	ce 4d 01 00 	mov.b	r13,	1(r14)	;0x0001(r14)
    7b1e:	de 4f ff ff 00 00 	mov.b	-1(r15),0(r14)	;0xffff(r15), 0x0000(r14)
    7b24:	1b 42 76 11 	mov	&0x1176,r11	
    7b28:	0f 4b       	mov	r11,	r15	
    7b2a:	1f 53       	inc	r15		
    7b2c:	b0 12 44 45 	call	#0x4544	
    7b30:	0a 4f       	mov	r15,	r10	
    7b32:	b0 12 50 4b 	call	#0x4b50	
    7b36:	58 42 b8 11 	mov.b	&0x11b8,r8	
    7b3a:	b0 12 64 4b 	call	#0x4b64	
    7b3e:	48 93       	tst.b	r8		
    7b40:	39 24       	jz	$+116    	;abs 0x7bb4
    7b42:	0e 4a       	mov	r10,	r14	
    7b44:	8e 10       	swpb	r14		
    7b46:	3e f0 ff 00 	and	#255,	r14	;#0x00ff
    7b4a:	12 c3       	clrc			
    7b4c:	0e 10       	rrc	r14		
    7b4e:	0e 11       	rra	r14		
    7b50:	3e f0 03 00 	and	#3,	r14	;#0x0003
    7b54:	2e 93       	cmp	#2,	r14	;r3 As==10
    7b56:	12 20       	jnz	$+38     	;abs 0x7b7c
    7b58:	3b 50 06 00 	add	#6,	r11	;#0x0006
    7b5c:	0f 4b       	mov	r11,	r15	
    7b5e:	b0 12 44 45 	call	#0x4544	
    7b62:	0a 4f       	mov	r15,	r10	
    7b64:	b0 12 56 4c 	call	#0x4c56	
    7b68:	0a 9f       	cmp	r15,	r10	
    7b6a:	24 24       	jz	$+74     	;abs 0x7bb4
    7b6c:	0f 4b       	mov	r11,	r15	
    7b6e:	b0 12 44 45 	call	#0x4544	
    7b72:	3f 93       	cmp	#-1,	r15	;r3 As==11
    7b74:	02 24       	jz	$+6      	;abs 0x7b7a
    7b76:	30 40 94 7f 	br	#0x7f94	
    7b7a:	1c 3c       	jmp	$+58     	;abs 0x7bb4
    7b7c:	3e 90 03 00 	cmp	#3,	r14	;#0x0003
    7b80:	02 24       	jz	$+6      	;abs 0x7b86
    7b82:	30 40 94 7f 	br	#0x7f94	
    7b86:	91 42 5e 15 00 00 	mov	&0x155e,0(r1)	;0x0000(r1)
    7b8c:	91 42 60 15 02 00 	mov	&0x1560,2(r1)	;0x0002(r1)
    7b92:	91 42 62 15 04 00 	mov	&0x1562,4(r1)	;0x0004(r1)
    7b98:	91 42 64 15 06 00 	mov	&0x1564,6(r1)	;0x0006(r1)
    7b9e:	3d 42       	mov	#8,	r13	;r2 As==11
    7ba0:	0e 41       	mov	r1,	r14	
    7ba2:	0f 4b       	mov	r11,	r15	
    7ba4:	3f 50 06 00 	add	#6,	r15	;#0x0006
    7ba8:	b0 12 2c 84 	call	#0x842c	
    7bac:	0f 93       	tst	r15		
    7bae:	02 24       	jz	$+6      	;abs 0x7bb4
    7bb0:	30 40 94 7f 	br	#0x7f94	
    7bb4:	77 90 0d 00 	cmp.b	#13,	r7	;#0x000d
    7bb8:	02 2c       	jc	$+6      	;abs 0x7bbe
    7bba:	30 40 94 7f 	br	#0x7f94	
    7bbe:	1a 42 76 11 	mov	&0x1176,r10	
    7bc2:	0f 4a       	mov	r10,	r15	
    7bc4:	1f 53       	inc	r15		
    7bc6:	b0 12 44 45 	call	#0x4544	
    7bca:	8f 10       	swpb	r15		
    7bcc:	3f f0 ff 00 	and	#255,	r15	;#0x00ff
    7bd0:	12 c3       	clrc			
    7bd2:	0f 10       	rrc	r15		
    7bd4:	0f 11       	rra	r15		
    7bd6:	0e 4f       	mov	r15,	r14	
    7bd8:	3e f0 03 00 	and	#3,	r14	;#0x0003
    7bdc:	0f 11       	rra	r15		
    7bde:	0f 11       	rra	r15		
    7be0:	0f 11       	rra	r15		
    7be2:	0f 11       	rra	r15		
    7be4:	3f 90 03 00 	cmp	#3,	r15	;#0x0003
    7be8:	02 24       	jz	$+6      	;abs 0x7bee
    7bea:	2d 43       	mov	#2,	r13	;r3 As==10
    7bec:	01 3c       	jmp	$+4      	;abs 0x7bf0
    7bee:	3d 42       	mov	#8,	r13	;r2 As==11
    7bf0:	3e 90 03 00 	cmp	#3,	r14	;#0x0003
    7bf4:	02 24       	jz	$+6      	;abs 0x7bfa
    7bf6:	2e 43       	mov	#2,	r14	;r3 As==10
    7bf8:	01 3c       	jmp	$+4      	;abs 0x7bfc
    7bfa:	3e 42       	mov	#8,	r14	;r2 As==11
    7bfc:	3e 50 06 00 	add	#6,	r14	;#0x0006
    7c00:	0e 5a       	add	r10,	r14	
    7c02:	0b 43       	clr	r11		
    7c04:	0f 4b       	mov	r11,	r15	
    7c06:	0c 4e       	mov	r14,	r12	
    7c08:	0c 5f       	add	r15,	r12	
    7c0a:	6c 4c       	mov.b	@r12,	r12	
    7c0c:	0b 5c       	add	r12,	r11	
    7c0e:	1f 53       	inc	r15		
    7c10:	0f 9d       	cmp	r13,	r15	
    7c12:	f9 3b       	jl	$-12     	;abs 0x7c06
    7c14:	56 4a 03 00 	mov.b	3(r10),	r6	;0x0003(r10)
    7c18:	f2 43 1c 16 	mov.b	#-1,	&0x161c	;r3 As==11
    7c1c:	b0 12 50 4b 	call	#0x4b50	
    7c20:	5c 42 1c 16 	mov.b	&0x161c,r12	
    7c24:	3e 40 80 11 	mov	#4480,	r14	;#0x1180
    7c28:	0d 43       	clr	r13		
    7c2a:	2b 9e       	cmp	@r14,	r11	
    7c2c:	0a 20       	jnz	$+22     	;abs 0x7c42
    7c2e:	ce 96 02 00 	cmp.b	r6,	2(r14)	;0x0002(r14)
    7c32:	06 20       	jnz	$+14     	;abs 0x7c40
    7c34:	c2 4c 1c 16 	mov.b	r12,	&0x161c	
    7c38:	b0 12 64 4b 	call	#0x4b64	
    7c3c:	30 40 90 7f 	br	#0x7f90	
    7c40:	4c 4d       	mov.b	r13,	r12	
    7c42:	1d 53       	inc	r13		
    7c44:	2e 52       	add	#4,	r14	;r2 As==10
    7c46:	2d 92       	cmp	#4,	r13	;r2 As==10
    7c48:	f0 23       	jnz	$-30     	;abs 0x7c2a
    7c4a:	c2 4c 1c 16 	mov.b	r12,	&0x161c	
    7c4e:	b0 12 64 4b 	call	#0x4b64	
    7c52:	58 42 1c 16 	mov.b	&0x161c,r8	
    7c56:	b0 12 50 4b 	call	#0x4b50	
    7c5a:	78 93       	cmp.b	#-1,	r8	;r3 As==11
    7c5c:	03 24       	jz	$+8      	;abs 0x7c64
    7c5e:	c2 98 70 11 	cmp.b	r8,	&0x1170	
    7c62:	04 20       	jnz	$+10     	;abs 0x7c6c
    7c64:	58 42 70 11 	mov.b	&0x1170,r8	
    7c68:	5d 43       	mov.b	#1,	r13	;r3 As==01
    7c6a:	01 3c       	jmp	$+4      	;abs 0x7c6e
    7c6c:	4d 43       	clr.b	r13		
    7c6e:	4e 48       	mov.b	r8,	r14	
    7c70:	0e 5e       	rla	r14		
    7c72:	0e 5e       	rla	r14		
    7c74:	8e 4b 80 11 	mov	r11,	4480(r14);0x1180(r14)
    7c78:	ce 46 82 11 	mov.b	r6,	4482(r14);0x1182(r14)
    7c7c:	4d 93       	tst.b	r13		
    7c7e:	07 24       	jz	$+16     	;abs 0x7c8e
    7c80:	5e 42 70 11 	mov.b	&0x1170,r14	
    7c84:	5e 53       	inc.b	r14		
    7c86:	7e f0 03 00 	and.b	#3,	r14	;#0x0003
    7c8a:	c2 4e 70 11 	mov.b	r14,	&0x1170	
    7c8e:	b0 12 64 4b 	call	#0x4b64	
    7c92:	b0 12 50 4b 	call	#0x4b50	
    7c96:	48 4f       	mov.b	r15,	r8	
    7c98:	0f 4a       	mov	r10,	r15	
    7c9a:	b0 12 a0 48 	call	#0x48a0	
    7c9e:	6b 4f       	mov.b	@r15,	r11	
    7ca0:	4f 48       	mov.b	r8,	r15	
    7ca2:	b0 12 64 4b 	call	#0x4b64	
    7ca6:	08 4a       	mov	r10,	r8	
    7ca8:	38 50 2a 00 	add	#42,	r8	;#0x002a
    7cac:	c8 93 03 00 	tst.b	3(r8)		;0x0003(r8)
    7cb0:	02 20       	jnz	$+6      	;abs 0x7cb6
    7cb2:	30 40 90 7f 	br	#0x7f90	
    7cb6:	7b 90 3f 00 	cmp.b	#63,	r11	;#0x003f
    7cba:	02 24       	jz	$+6      	;abs 0x7cc0
    7cbc:	30 40 90 7f 	br	#0x7f90	
    7cc0:	0b 4a       	mov	r10,	r11	
    7cc2:	3b 50 06 00 	add	#6,	r11	;#0x0006
    7cc6:	0f 4b       	mov	r11,	r15	
    7cc8:	b0 12 44 45 	call	#0x4544	
    7ccc:	06 4f       	mov	r15,	r6	
    7cce:	b0 12 1c 57 	call	#0x571c	
    7cd2:	06 9f       	cmp	r15,	r6	
    7cd4:	07 24       	jz	$+16     	;abs 0x7ce4
    7cd6:	0f 4b       	mov	r11,	r15	
    7cd8:	b0 12 44 45 	call	#0x4544	
    7cdc:	3f 93       	cmp	#-1,	r15	;r3 As==11
    7cde:	02 24       	jz	$+6      	;abs 0x7ce4
    7ce0:	30 40 90 7f 	br	#0x7f90	
    7ce4:	77 50 f3 ff 	add.b	#-13,	r7	;#0xfff3
    7ce8:	0b 4a       	mov	r10,	r11	
    7cea:	3b 50 0c 00 	add	#12,	r11	;#0x000c
    7cee:	5f 4a 0b 00 	mov.b	11(r10),r15	;0x000b(r10)
    7cf2:	7f 90 3d 00 	cmp.b	#61,	r15	;#0x003d
    7cf6:	06 24       	jz	$+14     	;abs 0x7d04
    7cf8:	7f 90 f0 ff 	cmp.b	#-16,	r15	;#0xfff0
    7cfc:	02 24       	jz	$+6      	;abs 0x7d02
    7cfe:	30 40 90 7f 	br	#0x7f90	
    7d02:	7a 3c       	jmp	$+246    	;abs 0x7df8
    7d04:	6e 4a       	mov.b	@r10,	r14	
    7d06:	7e 50 ee ff 	add.b	#-18,	r14	;#0xffee
    7d0a:	4e 4e       	mov.b	r14,	r14	
    7d0c:	0e 5b       	add	r11,	r14	
    7d0e:	fe 90 82 ff 00 00 	cmp.b	#-126,	0(r14)	;#0xff82, 0x0000(r14)
    7d14:	02 24       	jz	$+6      	;abs 0x7d1a
    7d16:	30 40 90 7f 	br	#0x7f90	
    7d1a:	12 12 30 11 	push	&0x1130	
    7d1e:	30 12 61 71 	push	#29025		;#0x7161
    7d22:	b0 12 ca 85 	call	#0x85ca	
    7d26:	21 52       	add	#4,	r1	;r2 As==10
    7d28:	0f 48       	mov	r8,	r15	
    7d2a:	3f 50 06 00 	add	#6,	r15	;#0x0006
    7d2e:	b0 12 82 45 	call	#0x4582	
    7d32:	08 4e       	mov	r14,	r8	
    7d34:	09 4f       	mov	r15,	r9	
    7d36:	0e 93       	tst	r14		
    7d38:	05 20       	jnz	$+12     	;abs 0x7d44
    7d3a:	39 90 00 80 	cmp	#-32768,r9	;#0x8000
    7d3e:	02 20       	jnz	$+6      	;abs 0x7d44
    7d40:	30 40 90 7f 	br	#0x7f90	
    7d44:	6f 4a       	mov.b	@r10,	r15	
    7d46:	7f 50 ee ff 	add.b	#-18,	r15	;#0xffee
    7d4a:	4f 4f       	mov.b	r15,	r15	
    7d4c:	0f 5b       	add	r11,	r15	
    7d4e:	1f 53       	inc	r15		
    7d50:	b0 12 82 45 	call	#0x4582	
    7d54:	0e 93       	tst	r14		
    7d56:	05 20       	jnz	$+12     	;abs 0x7d62
    7d58:	3f 90 00 80 	cmp	#-32768,r15	;#0x8000
    7d5c:	02 20       	jnz	$+6      	;abs 0x7d62
    7d5e:	30 40 90 7f 	br	#0x7f90	
    7d62:	77 90 07 00 	cmp.b	#7,	r7	;#0x0007
    7d66:	02 24       	jz	$+6      	;abs 0x7d6c
    7d68:	30 40 90 7f 	br	#0x7f90	
    7d6c:	6f 4a       	mov.b	@r10,	r15	
    7d6e:	7f 50 ee ff 	add.b	#-18,	r15	;#0xffee
    7d72:	4f 4f       	mov.b	r15,	r15	
    7d74:	0f 5b       	add	r11,	r15	
    7d76:	1f 53       	inc	r15		
    7d78:	b0 12 82 45 	call	#0x4582	
    7d7c:	0c 4e       	mov	r14,	r12	
    7d7e:	0d 4f       	mov	r15,	r13	
    7d80:	0c 58       	add	r8,	r12	
    7d82:	0d 69       	addc	r9,	r13	
    7d84:	82 4c 1e 16 	mov	r12,	&0x161e	
    7d88:	82 4d 20 16 	mov	r13,	&0x1620	
    7d8c:	d2 93 0e 11 	cmp.b	#1,	&0x110e	;r3 As==01
    7d90:	16 20       	jnz	$+46     	;abs 0x7dbe
    7d92:	3f 40 7d 71 	mov	#29053,	r15	;#0x717d
    7d96:	b0 12 60 8a 	call	#0x8a60	
    7d9a:	1d 42 1e 16 	mov	&0x161e,r13	
    7d9e:	1e 42 20 16 	mov	&0x1620,r14	
    7da2:	82 4d 94 11 	mov	r13,	&0x1194	
    7da6:	82 4e 96 11 	mov	r14,	&0x1196	
    7daa:	03 12       	push	#0		;r3 As==00
    7dac:	30 12 f4 81 	push	#-32268	;#0x81f4
    7db0:	7f 40 03 00 	mov.b	#3,	r15	;#0x0003
    7db4:	b0 12 1a 4e 	call	#0x4e1a	
    7db8:	21 52       	add	#4,	r1	;r2 As==10
    7dba:	c2 43 0e 11 	mov.b	#0,	&0x110e	;r3 As==00
    7dbe:	c2 43 46 12 	mov.b	#0,	&0x1246	;r3 As==00
    7dc2:	03 12       	push	#0		;r3 As==00
    7dc4:	30 12 00 40 	push	#16384		;#0x4000
    7dc8:	1d 42 1e 16 	mov	&0x161e,r13	
    7dcc:	1e 42 20 16 	mov	&0x1620,r14	
    7dd0:	6f 42       	mov.b	#4,	r15	;r2 As==10
    7dd2:	b0 12 1a 4e 	call	#0x4e1a	
    7dd6:	21 52       	add	#4,	r1	;r2 As==10
    7dd8:	3f 40 8b 71 	mov	#29067,	r15	;#0x718b
    7ddc:	b0 12 60 8a 	call	#0x8a60	
    7de0:	82 93 30 11 	tst	&0x1130	
    7de4:	d5 20       	jnz	$+428    	;abs 0x7f90
    7de6:	3d 40 cc 0c 	mov	#3276,	r13	;#0x0ccc
    7dea:	0e 43       	clr	r14		
    7dec:	5f 43       	mov.b	#1,	r15	;r3 As==01
    7dee:	b0 12 f2 51 	call	#0x51f2	
    7df2:	3f 40 9c 71 	mov	#29084,	r15	;#0x719c
    7df6:	ca 3c       	jmp	$+406    	;abs 0x7f8c
    7df8:	0f 4a       	mov	r10,	r15	
    7dfa:	3f 52       	add	#8,	r15	;r2 As==11
    7dfc:	b0 12 44 45 	call	#0x4544	
    7e00:	08 4f       	mov	r15,	r8	
    7e02:	57 93       	cmp.b	#1,	r7	;r3 As==01
    7e04:	a9 20       	jnz	$+340    	;abs 0x7f58
    7e06:	92 93 00 11 	cmp	#1,	&0x1100	;r3 As==01
    7e0a:	5e 20       	jnz	$+190    	;abs 0x7ec8
    7e0c:	0f 12       	push	r15		
    7e0e:	30 12 af 71 	push	#29103		;#0x71af
    7e12:	b0 12 ca 85 	call	#0x85ca	
    7e16:	21 52       	add	#4,	r1	;r2 As==10
    7e18:	4b 48       	mov.b	r8,	r11	
    7e1a:	4f 48       	mov.b	r8,	r15	
    7e1c:	b0 12 e0 48 	call	#0x48e0	
    7e20:	4f 93       	tst.b	r15		
    7e22:	0b 24       	jz	$+24     	;abs 0x7e3a
    7e24:	4f 48       	mov.b	r8,	r15	
    7e26:	b0 12 e0 48 	call	#0x48e0	
    7e2a:	7f 53       	add.b	#-1,	r15	;r3 As==11
    7e2c:	4f 4f       	mov.b	r15,	r15	
    7e2e:	0f 5f       	rla	r15		
    7e30:	3f 50 32 12 	add	#4658,	r15	;#0x1232
    7e34:	5b 4f 01 00 	mov.b	1(r15),	r11	;0x0001(r15)
    7e38:	21 3c       	jmp	$+68     	;abs 0x7e7c
    7e3a:	7c 40 07 00 	mov.b	#7,	r12	;#0x0007
    7e3e:	01 3c       	jmp	$+4      	;abs 0x7e42
    7e40:	4f 47       	mov.b	r7,	r15	
    7e42:	4c 9f       	cmp.b	r15,	r12	
    7e44:	05 2c       	jc	$+12     	;abs 0x7e50
    7e46:	c2 4f 60 12 	mov.b	r15,	&0x1260	
    7e4a:	3f 40 c6 71 	mov	#29126,	r15	;#0x71c6
    7e4e:	9e 3c       	jmp	$+318    	;abs 0x7f8c
    7e50:	47 4f       	mov.b	r15,	r7	
    7e52:	57 53       	inc.b	r7		
    7e54:	4e 4f       	mov.b	r15,	r14	
    7e56:	0d 4e       	mov	r14,	r13	
    7e58:	3d 50 2e 16 	add	#5678,	r13	;#0x162e
    7e5c:	cd 93 00 00 	tst.b	0(r13)		;0x0000(r13)
    7e60:	ef 23       	jnz	$-32     	;abs 0x7e40
    7e62:	c2 4f 60 12 	mov.b	r15,	&0x1260	
    7e66:	cd 4b 00 00 	mov.b	r11,	0(r13)	;0x0000(r13)
    7e6a:	0e 5e       	rla	r14		
    7e6c:	3e 50 32 12 	add	#4658,	r14	;#0x1232
    7e70:	ce 4b 00 00 	mov.b	r11,	0(r14)	;0x0000(r14)
    7e74:	4b 4f       	mov.b	r15,	r11	
    7e76:	6b 53       	incd.b	r11		
    7e78:	ce 4b 01 00 	mov.b	r11,	1(r14)	;0x0001(r14)
    7e7c:	08 12       	push	r8		
    7e7e:	4f 4b       	mov.b	r11,	r15	
    7e80:	0f 12       	push	r15		
    7e82:	30 12 da 71 	push	#29146		;#0x71da
    7e86:	b0 12 ca 85 	call	#0x85ca	
    7e8a:	31 50 06 00 	add	#6,	r1	;#0x0006
    7e8e:	c2 93 98 11 	tst.b	&0x1198	
    7e92:	17 20       	jnz	$+48     	;abs 0x7ec2
    7e94:	08 12       	push	r8		
    7e96:	30 12 f4 71 	push	#29172		;#0x71f4
    7e9a:	b0 12 ca 85 	call	#0x85ca	
    7e9e:	21 52       	add	#4,	r1	;r2 As==10
    7ea0:	c2 4b ec 15 	mov.b	r11,	&0x15ec	
    7ea4:	0e 48       	mov	r8,	r14	
    7ea6:	3f 40 e0 15 	mov	#5600,	r15	;#0x15e0
    7eaa:	b0 12 0e 49 	call	#0x490e	
    7eae:	f2 40 f0 ff eb 15 	mov.b	#-16,	&0x15eb	;#0xfff0
    7eb4:	5d 43       	mov.b	#1,	r13	;r3 As==01
    7eb6:	3e 40 e0 15 	mov	#5600,	r14	;#0x15e0
    7eba:	4f 4d       	mov.b	r13,	r15	
    7ebc:	b0 12 e6 65 	call	#0x65e6	
    7ec0:	67 3c       	jmp	$+208    	;abs 0x7f90
    7ec2:	3f 40 09 72 	mov	#29193,	r15	;#0x7209
    7ec6:	62 3c       	jmp	$+198    	;abs 0x7f8c
    7ec8:	1f 93       	cmp	#1,	r15	;r3 As==01
    7eca:	62 20       	jnz	$+198    	;abs 0x7f90
    7ecc:	6f 4b       	mov.b	@r11,	r15	
    7ece:	82 4f 30 11 	mov	r15,	&0x1130	
    7ed2:	0f 12       	push	r15		
    7ed4:	30 12 16 72 	push	#29206		;#0x7216
    7ed8:	b0 12 ca 85 	call	#0x85ca	
    7edc:	21 52       	add	#4,	r1	;r2 As==10
    7ede:	02 12       	push	r2		
    7ee0:	32 c2       	dint			
    7ee2:	03 43       	nop			
    7ee4:	92 42 30 11 30 01 	mov	&0x1130,&0x0130	
    7eea:	b2 40 cc 0c 38 01 	mov	#3276,	&0x0138	;#0x0ccc
    7ef0:	1e 42 3a 01 	mov	&0x013a,r14	
    7ef4:	1f 42 3c 01 	mov	&0x013c,r15	
    7ef8:	32 41       	pop	r2		
    7efa:	0f 12       	push	r15		
    7efc:	0e 12       	push	r14		
    7efe:	1d 42 94 11 	mov	&0x1194,r13	
    7f02:	1e 42 96 11 	mov	&0x1196,r14	
    7f06:	7f 40 05 00 	mov.b	#5,	r15	;#0x0005
    7f0a:	b0 12 1a 4e 	call	#0x4e1a	
    7f0e:	21 52       	add	#4,	r1	;r2 As==10
    7f10:	1f 42 30 11 	mov	&0x1130,r15	
    7f14:	0f 93       	tst	r15		
    7f16:	3c 24       	jz	$+122    	;abs 0x7f90
    7f18:	02 12       	push	r2		
    7f1a:	32 c2       	dint			
    7f1c:	03 43       	nop			
    7f1e:	82 4f 30 01 	mov	r15,	&0x0130	
    7f22:	b2 40 cc 0c 38 01 	mov	#3276,	&0x0138	;#0x0ccc
    7f28:	1e 42 3a 01 	mov	&0x013a,r14	
    7f2c:	1f 42 3c 01 	mov	&0x013c,r15	
    7f30:	32 41       	pop	r2		
    7f32:	3e 50 fd ff 	add	#-3,	r14	;#0xfffd
    7f36:	3f 63       	addc	#-1,	r15	;r3 As==11
    7f38:	0f 12       	push	r15		
    7f3a:	0e 12       	push	r14		
    7f3c:	1d 42 94 11 	mov	&0x1194,r13	
    7f40:	1e 42 96 11 	mov	&0x1196,r14	
    7f44:	7f 40 06 00 	mov.b	#6,	r15	;#0x0006
    7f48:	b0 12 1a 4e 	call	#0x4e1a	
    7f4c:	21 52       	add	#4,	r1	;r2 As==10
    7f4e:	b0 12 6e 58 	call	#0x586e	
    7f52:	3f 40 29 72 	mov	#29225,	r15	;#0x7229
    7f56:	1a 3c       	jmp	$+54     	;abs 0x7f8c
    7f58:	77 90 06 00 	cmp.b	#6,	r7	;#0x0006
    7f5c:	15 20       	jnz	$+44     	;abs 0x7f88
    7f5e:	92 93 00 11 	cmp	#1,	&0x1100	;r3 As==01
    7f62:	16 20       	jnz	$+46     	;abs 0x7f90
    7f64:	0f 4b       	mov	r11,	r15	
    7f66:	b0 12 82 45 	call	#0x4582	
    7f6a:	0f 12       	push	r15		
    7f6c:	0e 12       	push	r14		
    7f6e:	30 12 4e 72 	push	#29262		;#0x724e
    7f72:	b0 12 ca 85 	call	#0x85ca	
    7f76:	31 50 06 00 	add	#6,	r1	;#0x0006
    7f7a:	08 12       	push	r8		
    7f7c:	30 12 5f 72 	push	#29279		;#0x725f
    7f80:	b0 12 ca 85 	call	#0x85ca	
    7f84:	21 52       	add	#4,	r1	;r2 As==10
    7f86:	04 3c       	jmp	$+10     	;abs 0x7f90
    7f88:	3f 40 6a 72 	mov	#29290,	r15	;#0x726a
    7f8c:	b0 12 60 8a 	call	#0x8a60	
    7f90:	82 4a 76 11 	mov	r10,	&0x1176	
    7f94:	b0 12 50 4b 	call	#0x4b50	
    7f98:	c2 43 fc 11 	mov.b	#0,	&0x11fc	;r3 As==00
    7f9c:	b0 12 64 4b 	call	#0x4b64	
    7fa0:	b0 12 58 60 	call	#0x6058	
    7fa4:	42 3c       	jmp	$+134    	;abs 0x802a
    7fa6:	5b 42 12 12 	mov.b	&0x1212,r11	
    7faa:	5b 92 2b 11 	cmp.b	&0x112b,r11	
    7fae:	3d 24       	jz	$+124    	;abs 0x802a
    7fb0:	c2 4b 2b 11 	mov.b	r11,	&0x112b	
    7fb4:	4b 93       	tst.b	r11		
    7fb6:	10 20       	jnz	$+34     	;abs 0x7fd8
    7fb8:	5e 42 42 12 	mov.b	&0x1242,r14	
    7fbc:	1f 42 72 11 	mov	&0x1172,r15	
    7fc0:	b0 12 86 64 	call	#0x6486	
    7fc4:	4f 9b       	cmp.b	r11,	r15	
    7fc6:	31 24       	jz	$+100    	;abs 0x802a
    7fc8:	f2 43 2b 11 	mov.b	#-1,	&0x112b	;r3 As==11
    7fcc:	4e 4f       	mov.b	r15,	r14	
    7fce:	1f 42 72 11 	mov	&0x1172,r15	
    7fd2:	b0 12 4c 6c 	call	#0x6c4c	
    7fd6:	29 3c       	jmp	$+84     	;abs 0x802a
    7fd8:	f2 43 2b 11 	mov.b	#-1,	&0x112b	;r3 As==11
    7fdc:	26 3c       	jmp	$+78     	;abs 0x802a
    7fde:	c2 93 de 15 	tst.b	&0x15de	
    7fe2:	23 24       	jz	$+72     	;abs 0x802a
    7fe4:	3a 40 50 12 	mov	#4688,	r10	;#0x1250
    7fe8:	48 43       	clr.b	r8		
    7fea:	5b 43       	mov.b	#1,	r11	;r3 As==01
    7fec:	5f 42 de 15 	mov.b	&0x15de,r15	
    7ff0:	4e 4b       	mov.b	r11,	r14	
    7ff2:	4e ff       	and.b	r15,	r14	
    7ff4:	0b 24       	jz	$+24     	;abs 0x800c
    7ff6:	2e 4a       	mov	@r10,	r14	
    7ff8:	8a 43 00 00 	mov	#0,	0(r10)	;r3 As==00, 0x0000(r10)
    7ffc:	4f cb       	bic.b	r11,	r15	
    7ffe:	c2 4f de 15 	mov.b	r15,	&0x15de	
    8002:	7d 40 03 00 	mov.b	#3,	r13	;#0x0003
    8006:	4f 48       	mov.b	r8,	r15	
    8008:	b0 12 38 59 	call	#0x5938	
    800c:	58 53       	inc.b	r8		
    800e:	2a 53       	incd	r10		
    8010:	78 92       	cmp.b	#8,	r8	;r2 As==11
    8012:	0b 24       	jz	$+24     	;abs 0x802a
    8014:	4b 5b       	rla.b	r11		
    8016:	ea 3f       	jmp	$-42     	;abs 0x7fec
    8018:	5f 42 2e 11 	mov.b	&0x112e,r15	
    801c:	4e 4f       	mov.b	r15,	r14	
    801e:	0e 5e       	rla	r14		
    8020:	5d 43       	mov.b	#1,	r13	;r3 As==01
    8022:	1e 4e 50 12 	mov	4688(r14),r14	;0x1250(r14)
    8026:	b0 12 80 6b 	call	#0x6b80	
    802a:	31 50 0a 00 	add	#10,	r1	;#0x000a
    802e:	35 41       	pop	r5		
    8030:	36 41       	pop	r6		
    8032:	37 41       	pop	r7		
    8034:	38 41       	pop	r8		
    8036:	39 41       	pop	r9		
    8038:	3a 41       	pop	r10		
    803a:	3b 41       	pop	r11		
    803c:	30 41       	ret			

0000803e <RealMainP__Scheduler__runNextTask>:
    803e:	b0 12 a0 47 	call	#0x47a0	
    8042:	7f 93       	cmp.b	#-1,	r15	;r3 As==11
    8044:	04 24       	jz	$+10     	;abs 0x804e
    8046:	b0 12 86 72 	call	#0x7286	
    804a:	5f 43       	mov.b	#1,	r15	;r3 As==01
    804c:	30 41       	ret			
    804e:	4f 43       	clr.b	r15		
    8050:	30 41       	ret			

00008052 <printfflush>:
    8052:	0f 43       	clr	r15		
    8054:	30 41       	ret			

00008056 <sig_TIMERA0_VECTOR>:
    8056:	0f 12       	push	r15		
    8058:	0e 12       	push	r14		
    805a:	0d 12       	push	r13		
    805c:	0c 12       	push	r12		
    805e:	4f 43       	clr.b	r15		
    8060:	b0 12 fc 44 	call	#0x44fc	
    8064:	3c 41       	pop	r12		
    8066:	3d 41       	pop	r13		
    8068:	3e 41       	pop	r14		
    806a:	3f 41       	pop	r15		
    806c:	b1 c0 f0 00 00 00 	bic	#240,	0(r1)	;#0x00f0, 0x0000(r1)
    8072:	00 13       	reti			

00008074 <sig_TIMERA1_VECTOR>:
    8074:	0f 12       	push	r15		
    8076:	0e 12       	push	r14		
    8078:	0d 12       	push	r13		
    807a:	0c 12       	push	r12		
    807c:	1f 42 2e 01 	mov	&0x012e,r15	
    8080:	12 c3       	clrc			
    8082:	4f 10       	rrc.b	r15		
    8084:	b0 12 fc 44 	call	#0x44fc	
    8088:	3c 41       	pop	r12		
    808a:	3d 41       	pop	r13		
    808c:	3e 41       	pop	r14		
    808e:	3f 41       	pop	r15		
    8090:	b1 c0 f0 00 00 00 	bic	#240,	0(r1)	;#0x00f0, 0x0000(r1)
    8096:	00 13       	reti			

00008098 <sig_TIMERB0_VECTOR>:
    8098:	0f 12       	push	r15		
    809a:	0e 12       	push	r14		
    809c:	0d 12       	push	r13		
    809e:	0c 12       	push	r12		
    80a0:	4f 43       	clr.b	r15		
    80a2:	b0 12 c4 6c 	call	#0x6cc4	
    80a6:	3c 41       	pop	r12		
    80a8:	3d 41       	pop	r13		
    80aa:	3e 41       	pop	r14		
    80ac:	3f 41       	pop	r15		
    80ae:	b1 c0 f0 00 00 00 	bic	#240,	0(r1)	;#0x00f0, 0x0000(r1)
    80b4:	00 13       	reti			

000080b6 <sig_TIMERB1_VECTOR>:
    80b6:	0f 12       	push	r15		
    80b8:	0e 12       	push	r14		
    80ba:	0d 12       	push	r13		
    80bc:	0c 12       	push	r12		
    80be:	1f 42 1e 01 	mov	&0x011e,r15	
    80c2:	12 c3       	clrc			
    80c4:	4f 10       	rrc.b	r15		
    80c6:	b0 12 c4 6c 	call	#0x6cc4	
    80ca:	3c 41       	pop	r12		
    80cc:	3d 41       	pop	r13		
    80ce:	3e 41       	pop	r14		
    80d0:	3f 41       	pop	r15		
    80d2:	b1 c0 f0 00 00 00 	bic	#240,	0(r1)	;#0x00f0, 0x0000(r1)
    80d8:	00 13       	reti			

000080da <sig_UART1RX_VECTOR>:
    80da:	0f 12       	push	r15		
    80dc:	0e 12       	push	r14		
    80de:	0d 12       	push	r13		
    80e0:	0c 12       	push	r12		
    80e2:	5e 42 7e 00 	mov.b	&0x007e,r14	
    80e6:	5f 42 38 11 	mov.b	&0x1138,r15	
    80ea:	4f 93       	tst.b	r15		
    80ec:	32 24       	jz	$+102    	;abs 0x8152
    80ee:	2e 3c       	jmp	$+94     	;abs 0x814c
    80f0:	c2 93 12 11 	tst.b	&0x1112	
    80f4:	2e 20       	jnz	$+94     	;abs 0x8152
    80f6:	1f 42 fa 11 	mov	&0x11fa,r15	
    80fa:	0f 93       	tst	r15		
    80fc:	0f 24       	jz	$+32     	;abs 0x811c
    80fe:	1d 42 2a 13 	mov	&0x132a,r13	
    8102:	0f 5d       	add	r13,	r15	
    8104:	cf 4e 00 00 	mov.b	r14,	0(r15)	;0x0000(r15)
    8108:	0f 4d       	mov	r13,	r15	
    810a:	1f 53       	inc	r15		
    810c:	82 4f 2a 13 	mov	r15,	&0x132a	
    8110:	1f 92 5e 12 	cmp	&0x125e,r15	
    8114:	1e 28       	jnc	$+62     	;abs 0x8152
    8116:	82 43 fa 11 	mov	#0,	&0x11fa	;r3 As==00
    811a:	1b 3c       	jmp	$+56     	;abs 0x8152
    811c:	7e 90 7e 00 	cmp.b	#126,	r14	;#0x007e
    8120:	03 20       	jnz	$+8      	;abs 0x8128
    8122:	4e 4f       	mov.b	r15,	r14	
    8124:	5f 43       	mov.b	#1,	r15	;r3 As==01
    8126:	0f 3c       	jmp	$+32     	;abs 0x8146
    8128:	7e 90 7d 00 	cmp.b	#125,	r14	;#0x007d
    812c:	03 20       	jnz	$+8      	;abs 0x8134
    812e:	e2 d3 56 11 	bis.b	#2,	&0x1156	;r3 As==10
    8132:	0f 3c       	jmp	$+32     	;abs 0x8152
    8134:	e2 b3 56 11 	bit.b	#2,	&0x1156	;r3 As==10
    8138:	05 24       	jz	$+12     	;abs 0x8144
    813a:	f2 f0 fd ff 56 11 	and.b	#-3,	&0x1156	;#0xfffd
    8140:	7e e0 20 00 	xor.b	#32,	r14	;#0x0020
    8144:	4f 43       	clr.b	r15		
    8146:	b0 12 c6 54 	call	#0x54c6	
    814a:	03 3c       	jmp	$+8      	;abs 0x8152
    814c:	7f 90 03 00 	cmp.b	#3,	r15	;#0x0003
    8150:	cf 27       	jz	$-96     	;abs 0x80f0
    8152:	3c 41       	pop	r12		
    8154:	3d 41       	pop	r13		
    8156:	3e 41       	pop	r14		
    8158:	3f 41       	pop	r15		
    815a:	b1 c0 f0 00 00 00 	bic	#240,	0(r1)	;#0x00f0, 0x0000(r1)
    8160:	00 13       	reti			

00008162 <sig_UART1TX_VECTOR>:
    8162:	0f 12       	push	r15		
    8164:	0e 12       	push	r14		
    8166:	0d 12       	push	r13		
    8168:	0c 12       	push	r12		
    816a:	5f 42 38 11 	mov.b	&0x1138,r15	
    816e:	4f 93       	tst.b	r15		
    8170:	1f 24       	jz	$+64     	;abs 0x81b0
    8172:	1b 3c       	jmp	$+56     	;abs 0x81aa
    8174:	5f 42 12 11 	mov.b	&0x1112,r15	
    8178:	4f 93       	tst.b	r15		
    817a:	1a 20       	jnz	$+54     	;abs 0x81b0
    817c:	c2 9f 78 11 	cmp.b	r15,	&0x1178	
    8180:	0f 20       	jnz	$+32     	;abs 0x81a0
    8182:	1f 42 08 12 	mov	&0x1208,r15	
    8186:	1f 92 46 15 	cmp	&0x1546,r15	
    818a:	0a 2c       	jc	$+22     	;abs 0x81a0
    818c:	1e 42 22 16 	mov	&0x1622,r14	
    8190:	0e 5f       	add	r15,	r14	
    8192:	6e 4e       	mov.b	@r14,	r14	
    8194:	1f 53       	inc	r15		
    8196:	82 4f 08 12 	mov	r15,	&0x1208	
    819a:	c2 4e 7f 00 	mov.b	r14,	&0x007f	
    819e:	08 3c       	jmp	$+18     	;abs 0x81b0
    81a0:	82 43 22 16 	mov	#0,	&0x1622	;r3 As==00
    81a4:	b0 12 c8 5c 	call	#0x5cc8	
    81a8:	03 3c       	jmp	$+8      	;abs 0x81b0
    81aa:	7f 90 03 00 	cmp.b	#3,	r15	;#0x0003
    81ae:	e2 27       	jz	$-58     	;abs 0x8174
    81b0:	3c 41       	pop	r12		
    81b2:	3d 41       	pop	r13		
    81b4:	3e 41       	pop	r14		
    81b6:	3f 41       	pop	r15		
    81b8:	b1 c0 f0 00 00 00 	bic	#240,	0(r1)	;#0x00f0, 0x0000(r1)
    81be:	00 13       	reti			

000081c0 <putchar>:
    81c0:	0b 12       	push	r11		
    81c2:	0b 4f       	mov	r15,	r11	
    81c4:	b0 12 2c 5c 	call	#0x5c2c	
    81c8:	4f 93       	tst.b	r15		
    81ca:	19 24       	jz	$+52     	;abs 0x81fe
    81cc:	b0 12 c4 47 	call	#0x47c4	
    81d0:	f2 f0 df ff 01 00 	and.b	#-33,	&0x0001	;#0xffdf
    81d6:	c2 4b 7f 00 	mov.b	r11,	&0x007f	
    81da:	5e 42 03 00 	mov.b	&0x0003,r14	
    81de:	3e f0 20 00 	and	#32,	r14	;#0x0020
    81e2:	fb 27       	jz	$-8      	;abs 0x81da
    81e4:	b0 12 c4 47 	call	#0x47c4	
    81e8:	b0 12 50 4b 	call	#0x4b50	
    81ec:	f2 f0 df ff 03 00 	and.b	#-33,	&0x0003	;#0xffdf
    81f2:	f2 d0 20 00 01 00 	bis.b	#32,	&0x0001	;#0x0020
    81f8:	b0 12 64 4b 	call	#0x4b64	
    81fc:	01 3c       	jmp	$+4      	;abs 0x8200
    81fe:	3b 43       	mov	#-1,	r11	;r3 As==11
    8200:	0f 4b       	mov	r11,	r15	
    8202:	3b 41       	pop	r11		
    8204:	30 41       	ret			

00008206 <sig_PORT1_VECTOR>:
    8206:	0f 12       	push	r15		
    8208:	0e 12       	push	r14		
    820a:	0d 12       	push	r13		
    820c:	0c 12       	push	r12		
    820e:	0b 12       	push	r11		
    8210:	21 83       	decd	r1		
    8212:	5f 42 25 00 	mov.b	&0x0025,r15	
    8216:	5f f2 23 00 	and.b	&0x0023,r15	
    821a:	4f 4f       	mov.b	r15,	r15	
    821c:	81 4f 00 00 	mov	r15,	0(r1)	;0x0000(r1)
    8220:	2f 41       	mov	@r1,	r15	
    8222:	1f f3       	and	#1,	r15	;r3 As==01
    8224:	0d 24       	jz	$+28     	;abs 0x8240
    8226:	b0 12 a4 46 	call	#0x46a4	
    822a:	92 93 b2 11 	cmp	#1,	&0x11b2	;r3 As==01
    822e:	05 20       	jnz	$+12     	;abs 0x823a
    8230:	a2 43 b2 11 	mov	#2,	&0x11b2	;r3 As==10
    8234:	b0 12 32 60 	call	#0x6032	
    8238:	53 3c       	jmp	$+168    	;abs 0x82e0
    823a:	d2 53 b9 11 	inc.b	&0x11b9	
    823e:	50 3c       	jmp	$+162    	;abs 0x82e0
    8240:	2e 41       	mov	@r1,	r14	
    8242:	2e f3       	and	#2,	r14	;r3 As==10
    8244:	0e 9f       	cmp	r15,	r14	
    8246:	04 24       	jz	$+10     	;abs 0x8250
    8248:	f2 f0 fd ff 23 00 	and.b	#-3,	&0x0023	;#0xfffd
    824e:	48 3c       	jmp	$+146    	;abs 0x82e0
    8250:	2f 41       	mov	@r1,	r15	
    8252:	2f f2       	and	#4,	r15	;r2 As==10
    8254:	0f 9e       	cmp	r14,	r15	
    8256:	04 24       	jz	$+10     	;abs 0x8260
    8258:	f2 f0 fb ff 23 00 	and.b	#-5,	&0x0023	;#0xfffb
    825e:	40 3c       	jmp	$+130    	;abs 0x82e0
    8260:	2b 41       	mov	@r1,	r11	
    8262:	3b f2       	and	#8,	r11	;r2 As==11
    8264:	0b 9f       	cmp	r15,	r11	
    8266:	04 24       	jz	$+10     	;abs 0x8270
    8268:	f2 f0 f7 ff 23 00 	and.b	#-9,	&0x0023	;#0xfff7
    826e:	38 3c       	jmp	$+114    	;abs 0x82e0
    8270:	2f 41       	mov	@r1,	r15	
    8272:	3f f0 10 00 	and	#16,	r15	;#0x0010
    8276:	0f 9b       	cmp	r11,	r15	
    8278:	19 24       	jz	$+52     	;abs 0x82ac
    827a:	b0 12 f0 46 	call	#0x46f0	
    827e:	a2 42 5a 11 	mov	#4,	&0x115a	;r2 As==10
    8282:	f2 f0 ef ff 25 00 	and.b	#-17,	&0x0025	;#0xffef
    8288:	b0 12 f0 46 	call	#0x46f0	
    828c:	0e 4b       	mov	r11,	r14	
    828e:	7f 40 1d 00 	mov.b	#29,	r15	;#0x001d
    8292:	b0 12 8a 53 	call	#0x538a	
    8296:	b0 12 48 54 	call	#0x5448	
    829a:	b0 12 34 4f 	call	#0x4f34	
    829e:	b0 12 6a 4c 	call	#0x4c6a	
    82a2:	7f 40 0c 00 	mov.b	#12,	r15	;#0x000c
    82a6:	b0 12 7a 4c 	call	#0x4c7a	
    82aa:	1a 3c       	jmp	$+54     	;abs 0x82e0
    82ac:	2e 41       	mov	@r1,	r14	
    82ae:	3e f0 20 00 	and	#32,	r14	;#0x0020
    82b2:	0e 9f       	cmp	r15,	r14	
    82b4:	04 24       	jz	$+10     	;abs 0x82be
    82b6:	f2 f0 df ff 23 00 	and.b	#-33,	&0x0023	;#0xffdf
    82bc:	11 3c       	jmp	$+36     	;abs 0x82e0
    82be:	2f 41       	mov	@r1,	r15	
    82c0:	3f f0 40 00 	and	#64,	r15	;#0x0040
    82c4:	0f 9e       	cmp	r14,	r15	
    82c6:	04 24       	jz	$+10     	;abs 0x82d0
    82c8:	f2 f0 bf ff 23 00 	and.b	#-65,	&0x0023	;#0xffbf
    82ce:	08 3c       	jmp	$+18     	;abs 0x82e0
    82d0:	2e 41       	mov	@r1,	r14	
    82d2:	3e f0 80 00 	and	#128,	r14	;#0x0080
    82d6:	0e 9f       	cmp	r15,	r14	
    82d8:	03 24       	jz	$+8      	;abs 0x82e0
    82da:	f2 f0 7f 00 23 00 	and.b	#127,	&0x0023	;#0x007f
    82e0:	21 53       	incd	r1		
    82e2:	3b 41       	pop	r11		
    82e4:	3c 41       	pop	r12		
    82e6:	3d 41       	pop	r13		
    82e8:	3e 41       	pop	r14		
    82ea:	3f 41       	pop	r15		
    82ec:	b1 c0 f0 00 00 00 	bic	#240,	0(r1)	;#0x00f0, 0x0000(r1)
    82f2:	00 13       	reti			

000082f4 <sig_PORT2_VECTOR>:
    82f4:	0f 12       	push	r15		
    82f6:	0e 12       	push	r14		
    82f8:	21 83       	decd	r1		
    82fa:	5f 42 2d 00 	mov.b	&0x002d,r15	
    82fe:	5f f2 2b 00 	and.b	&0x002b,r15	
    8302:	4f 4f       	mov.b	r15,	r15	
    8304:	81 4f 00 00 	mov	r15,	0(r1)	;0x0000(r1)
    8308:	2f 41       	mov	@r1,	r15	
    830a:	1f f3       	and	#1,	r15	;r3 As==01
    830c:	04 24       	jz	$+10     	;abs 0x8316
    830e:	f2 f0 fe ff 2b 00 	and.b	#-2,	&0x002b	;#0xfffe
    8314:	3b 3c       	jmp	$+120    	;abs 0x838c
    8316:	2e 41       	mov	@r1,	r14	
    8318:	2e f3       	and	#2,	r14	;r3 As==10
    831a:	0e 9f       	cmp	r15,	r14	
    831c:	04 24       	jz	$+10     	;abs 0x8326
    831e:	f2 f0 fd ff 2b 00 	and.b	#-3,	&0x002b	;#0xfffd
    8324:	33 3c       	jmp	$+104    	;abs 0x838c
    8326:	2f 41       	mov	@r1,	r15	
    8328:	2f f2       	and	#4,	r15	;r2 As==10
    832a:	0f 9e       	cmp	r14,	r15	
    832c:	04 24       	jz	$+10     	;abs 0x8336
    832e:	f2 f0 fb ff 2b 00 	and.b	#-5,	&0x002b	;#0xfffb
    8334:	2b 3c       	jmp	$+88     	;abs 0x838c
    8336:	2e 41       	mov	@r1,	r14	
    8338:	3e f2       	and	#8,	r14	;r2 As==11
    833a:	0e 9f       	cmp	r15,	r14	
    833c:	04 24       	jz	$+10     	;abs 0x8346
    833e:	f2 f0 f7 ff 2b 00 	and.b	#-9,	&0x002b	;#0xfff7
    8344:	23 3c       	jmp	$+72     	;abs 0x838c
    8346:	2f 41       	mov	@r1,	r15	
    8348:	3f f0 10 00 	and	#16,	r15	;#0x0010
    834c:	0f 9e       	cmp	r14,	r15	
    834e:	04 24       	jz	$+10     	;abs 0x8358
    8350:	f2 f0 ef ff 2b 00 	and.b	#-17,	&0x002b	;#0xffef
    8356:	1a 3c       	jmp	$+54     	;abs 0x838c
    8358:	2e 41       	mov	@r1,	r14	
    835a:	3e f0 20 00 	and	#32,	r14	;#0x0020
    835e:	0e 9f       	cmp	r15,	r14	
    8360:	04 24       	jz	$+10     	;abs 0x836a
    8362:	f2 f0 df ff 2b 00 	and.b	#-33,	&0x002b	;#0xffdf
    8368:	11 3c       	jmp	$+36     	;abs 0x838c
    836a:	2f 41       	mov	@r1,	r15	
    836c:	3f f0 40 00 	and	#64,	r15	;#0x0040
    8370:	0f 9e       	cmp	r14,	r15	
    8372:	04 24       	jz	$+10     	;abs 0x837c
    8374:	f2 f0 bf ff 2b 00 	and.b	#-65,	&0x002b	;#0xffbf
    837a:	08 3c       	jmp	$+18     	;abs 0x838c
    837c:	2e 41       	mov	@r1,	r14	
    837e:	3e f0 80 00 	and	#128,	r14	;#0x0080
    8382:	0e 9f       	cmp	r15,	r14	
    8384:	03 24       	jz	$+8      	;abs 0x838c
    8386:	f2 f0 7f 00 2b 00 	and.b	#127,	&0x002b	;#0x007f
    838c:	21 53       	incd	r1		
    838e:	3e 41       	pop	r14		
    8390:	3f 41       	pop	r15		
    8392:	b1 c0 f0 00 00 00 	bic	#240,	0(r1)	;#0x00f0, 0x0000(r1)
    8398:	00 13       	reti			

0000839a <sig_UART0RX_VECTOR>:
    839a:	0f 12       	push	r15		
    839c:	0e 12       	push	r14		
    839e:	0d 12       	push	r13		
    83a0:	0c 12       	push	r12		
    83a2:	5e 42 76 00 	mov.b	&0x0076,r14	
    83a6:	5f 42 5e 11 	mov.b	&0x115e,r15	
    83aa:	4f 93       	tst.b	r15		
    83ac:	1c 24       	jz	$+58     	;abs 0x83e6
    83ae:	18 3c       	jmp	$+50     	;abs 0x83e0
    83b0:	c2 93 27 11 	tst.b	&0x1127	
    83b4:	18 20       	jnz	$+50     	;abs 0x83e6
    83b6:	1f 42 40 13 	mov	&0x1340,r15	
    83ba:	0f 93       	tst	r15		
    83bc:	04 24       	jz	$+10     	;abs 0x83c6
    83be:	1f 52 d6 15 	add	&0x15d6,r15	
    83c2:	cf 4e ff ff 	mov.b	r14,	-1(r15)	;0xffff(r15)
    83c6:	92 92 da 15 d6 15 	cmp	&0x15da,&0x15d6	
    83cc:	03 2c       	jc	$+8      	;abs 0x83d4
    83ce:	b0 12 6c 4b 	call	#0x4b6c	
    83d2:	09 3c       	jmp	$+20     	;abs 0x83e6
    83d4:	f2 f0 bf ff 00 00 	and.b	#-65,	&0x0000	;#0xffbf
    83da:	b0 12 cc 60 	call	#0x60cc	
    83de:	03 3c       	jmp	$+8      	;abs 0x83e6
    83e0:	7f 90 03 00 	cmp.b	#3,	r15	;#0x0003
    83e4:	e5 27       	jz	$-52     	;abs 0x83b0
    83e6:	3c 41       	pop	r12		
    83e8:	3d 41       	pop	r13		
    83ea:	3e 41       	pop	r14		
    83ec:	3f 41       	pop	r15		
    83ee:	b1 c0 f0 00 00 00 	bic	#240,	0(r1)	;#0x00f0, 0x0000(r1)
    83f4:	00 13       	reti			

000083f6 <sig_UART0TX_VECTOR>:
    83f6:	0f 12       	push	r15		
    83f8:	5f 42 70 00 	mov.b	&0x0070,r15	
    83fc:	3f f0 20 00 	and	#32,	r15	;#0x0020
    8400:	06 24       	jz	$+14     	;abs 0x840e
    8402:	5f 42 70 00 	mov.b	&0x0070,r15	
    8406:	2f f2       	and	#4,	r15	;r2 As==10
    8408:	02 24       	jz	$+6      	;abs 0x840e
    840a:	5f 42 70 00 	mov.b	&0x0070,r15	
    840e:	3f 41       	pop	r15		
    8410:	b1 c0 f0 00 00 00 	bic	#240,	0(r1)	;#0x00f0, 0x0000(r1)
    8416:	00 13       	reti			

00008418 <McuSleepC__msp430PowerBits>:
    8418:	00 00 10 00 50 00 90 00 d0 00 f0 00                 ....P.......

00008424 <CSWTCH.581>:
    8424:	00 00 9c ff 02 00 08 00                             ........

0000842c <memcmp>:
    842c:	0b 12       	push	r11		
    842e:	0a 12       	push	r10		
    8430:	0d 93       	tst	r13		
    8432:	12 24       	jz	$+38     	;abs 0x8458
    8434:	0c 43       	clr	r12		
    8436:	0b 4f       	mov	r15,	r11	
    8438:	0b 5c       	add	r12,	r11	
    843a:	6a 4b       	mov.b	@r11,	r10	
    843c:	0b 4e       	mov	r14,	r11	
    843e:	0b 5c       	add	r12,	r11	
    8440:	6b 4b       	mov.b	@r11,	r11	
    8442:	4a 9b       	cmp.b	r11,	r10	
    8444:	04 24       	jz	$+10     	;abs 0x844e
    8446:	4f 4a       	mov.b	r10,	r15	
    8448:	4e 4b       	mov.b	r11,	r14	
    844a:	0f 8e       	sub	r14,	r15	
    844c:	06 3c       	jmp	$+14     	;abs 0x845a
    844e:	1c 53       	inc	r12		
    8450:	0d 9c       	cmp	r12,	r13	
    8452:	f1 23       	jnz	$-28     	;abs 0x8436
    8454:	0f 43       	clr	r15		
    8456:	01 3c       	jmp	$+4      	;abs 0x845a
    8458:	0f 4d       	mov	r13,	r15	
    845a:	3a 41       	pop	r10		
    845c:	3b 41       	pop	r11		
    845e:	30 41       	ret			

00008460 <memcpy>:
    8460:	0b 12       	push	r11		
    8462:	0a 12       	push	r10		
    8464:	09 12       	push	r9		
    8466:	08 12       	push	r8		
    8468:	0d 93       	tst	r13		
    846a:	77 24       	jz	$+240    	;abs 0x855a
    846c:	0b 4f       	mov	r15,	r11	
    846e:	0c 4e       	mov	r14,	r12	
    8470:	0f 9e       	cmp	r14,	r15	
    8472:	73 24       	jz	$+232    	;abs 0x855a
    8474:	0f 9e       	cmp	r14,	r15	
    8476:	34 2c       	jc	$+106    	;abs 0x84e0
    8478:	0a 4e       	mov	r14,	r10	
    847a:	0a df       	bis	r15,	r10	
    847c:	1a f3       	and	#1,	r10	;r3 As==01
    847e:	1a 24       	jz	$+54     	;abs 0x84b4
    8480:	0c ef       	xor	r15,	r12	
    8482:	1c f3       	and	#1,	r12	;r3 As==01
    8484:	08 20       	jnz	$+18     	;abs 0x8496
    8486:	1c 43       	mov	#1,	r12	;r3 As==01
    8488:	0c 9d       	cmp	r13,	r12	
    848a:	06 2c       	jc	$+14     	;abs 0x8498
    848c:	0b 4e       	mov	r14,	r11	
    848e:	0b fc       	and	r12,	r11	
    8490:	2c 43       	mov	#2,	r12	;r3 As==10
    8492:	0c 8b       	sub	r11,	r12	
    8494:	01 3c       	jmp	$+4      	;abs 0x8498
    8496:	0c 4d       	mov	r13,	r12	
    8498:	0d 8c       	sub	r12,	r13	
    849a:	0b 43       	clr	r11		
    849c:	0a 4f       	mov	r15,	r10	
    849e:	0a 5b       	add	r11,	r10	
    84a0:	09 4e       	mov	r14,	r9	
    84a2:	09 5b       	add	r11,	r9	
    84a4:	ea 49 00 00 	mov.b	@r9,	0(r10)	;0x0000(r10)
    84a8:	1b 53       	inc	r11		
    84aa:	0c 9b       	cmp	r11,	r12	
    84ac:	f7 23       	jnz	$-16     	;abs 0x849c
    84ae:	0b 4f       	mov	r15,	r11	
    84b0:	0b 5c       	add	r12,	r11	
    84b2:	0c 5e       	add	r14,	r12	
    84b4:	0e 4d       	mov	r13,	r14	
    84b6:	12 c3       	clrc			
    84b8:	0e 10       	rrc	r14		
    84ba:	0e 93       	tst	r14		
    84bc:	0c 24       	jz	$+26     	;abs 0x84d6
    84be:	08 4e       	mov	r14,	r8	
    84c0:	09 4c       	mov	r12,	r9	
    84c2:	0a 4b       	mov	r11,	r10	
    84c4:	aa 49 00 00 	mov	@r9,	0(r10)	;0x0000(r10)
    84c8:	29 53       	incd	r9		
    84ca:	2a 53       	incd	r10		
    84cc:	38 53       	add	#-1,	r8	;r3 As==11
    84ce:	fa 23       	jnz	$-10     	;abs 0x84c4
    84d0:	0e 5e       	rla	r14		
    84d2:	0c 5e       	add	r14,	r12	
    84d4:	0b 5e       	add	r14,	r11	
    84d6:	1d f3       	and	#1,	r13	;r3 As==01
    84d8:	40 24       	jz	$+130    	;abs 0x855a
    84da:	eb 4c 00 00 	mov.b	@r12,	0(r11)	;0x0000(r11)
    84de:	3d 3c       	jmp	$+124    	;abs 0x855a
    84e0:	0e 5d       	add	r13,	r14	
    84e2:	0c 4f       	mov	r15,	r12	
    84e4:	0c 5d       	add	r13,	r12	
    84e6:	0b 4c       	mov	r12,	r11	
    84e8:	0b de       	bis	r14,	r11	
    84ea:	1b f3       	and	#1,	r11	;r3 As==01
    84ec:	1b 24       	jz	$+56     	;abs 0x8524
    84ee:	0b 4c       	mov	r12,	r11	
    84f0:	0b ee       	xor	r14,	r11	
    84f2:	1b f3       	and	#1,	r11	;r3 As==01
    84f4:	06 20       	jnz	$+14     	;abs 0x8502
    84f6:	3d 90 03 00 	cmp	#3,	r13	;#0x0003
    84fa:	03 28       	jnc	$+8      	;abs 0x8502
    84fc:	0b 4e       	mov	r14,	r11	
    84fe:	1b f3       	and	#1,	r11	;r3 As==01
    8500:	01 3c       	jmp	$+4      	;abs 0x8504
    8502:	0b 4d       	mov	r13,	r11	
    8504:	0d 8b       	sub	r11,	r13	
    8506:	0a 4b       	mov	r11,	r10	
    8508:	3a 53       	add	#-1,	r10	;r3 As==11
    850a:	3b e3       	inv	r11		
    850c:	1b 53       	inc	r11		
    850e:	0c 5b       	add	r11,	r12	
    8510:	0e 5b       	add	r11,	r14	
    8512:	0b 4c       	mov	r12,	r11	
    8514:	0b 5a       	add	r10,	r11	
    8516:	09 4e       	mov	r14,	r9	
    8518:	09 5a       	add	r10,	r9	
    851a:	eb 49 00 00 	mov.b	@r9,	0(r11)	;0x0000(r11)
    851e:	3a 53       	add	#-1,	r10	;r3 As==11
    8520:	3a 93       	cmp	#-1,	r10	;r3 As==11
    8522:	f7 23       	jnz	$-16     	;abs 0x8512
    8524:	0a 4d       	mov	r13,	r10	
    8526:	12 c3       	clrc			
    8528:	0a 10       	rrc	r10		
    852a:	0a 93       	tst	r10		
    852c:	11 24       	jz	$+36     	;abs 0x8550
    852e:	08 4a       	mov	r10,	r8	
    8530:	09 4e       	mov	r14,	r9	
    8532:	0b 4c       	mov	r12,	r11	
    8534:	29 83       	decd	r9		
    8536:	2b 83       	decd	r11		
    8538:	ab 49 00 00 	mov	@r9,	0(r11)	;0x0000(r11)
    853c:	38 53       	add	#-1,	r8	;r3 As==11
    853e:	fa 23       	jnz	$-10     	;abs 0x8534
    8540:	0b 4a       	mov	r10,	r11	
    8542:	0b 11       	rra	r11		
    8544:	0b 43       	clr	r11		
    8546:	0b 10       	rrc	r11		
    8548:	0b 8a       	sub	r10,	r11	
    854a:	0b 5b       	rla	r11		
    854c:	0e 5b       	add	r11,	r14	
    854e:	0c 5b       	add	r11,	r12	
    8550:	1d f3       	and	#1,	r13	;r3 As==01
    8552:	03 24       	jz	$+8      	;abs 0x855a
    8554:	dc 4e ff ff ff ff 	mov.b	-1(r14),-1(r12)	;0xffff(r14), 0xffff(r12)
    855a:	38 41       	pop	r8		
    855c:	39 41       	pop	r9		
    855e:	3a 41       	pop	r10		
    8560:	3b 41       	pop	r11		
    8562:	30 41       	ret			

00008564 <memset>:
    8564:	0b 12       	push	r11		
    8566:	0a 12       	push	r10		
    8568:	09 12       	push	r9		
    856a:	08 12       	push	r8		
    856c:	0b 4f       	mov	r15,	r11	
    856e:	3d 90 06 00 	cmp	#6,	r13	;#0x0006
    8572:	08 2c       	jc	$+18     	;abs 0x8584
    8574:	04 3c       	jmp	$+10     	;abs 0x857e
    8576:	cb 4e 00 00 	mov.b	r14,	0(r11)	;0x0000(r11)
    857a:	1b 53       	inc	r11		
    857c:	3d 53       	add	#-1,	r13	;r3 As==11
    857e:	0d 93       	tst	r13		
    8580:	fa 23       	jnz	$-10     	;abs 0x8576
    8582:	1e 3c       	jmp	$+62     	;abs 0x85c0
    8584:	4a 4e       	mov.b	r14,	r10	
    8586:	0a 93       	tst	r10		
    8588:	03 24       	jz	$+8      	;abs 0x8590
    858a:	0c 4a       	mov	r10,	r12	
    858c:	8c 10       	swpb	r12		
    858e:	0a dc       	bis	r12,	r10	
    8590:	1f b3       	bit	#1,	r15	;r3 As==01
    8592:	05 24       	jz	$+12     	;abs 0x859e
    8594:	3d 53       	add	#-1,	r13	;r3 As==11
    8596:	cf 4e 00 00 	mov.b	r14,	0(r15)	;0x0000(r15)
    859a:	0b 4f       	mov	r15,	r11	
    859c:	1b 53       	inc	r11		
    859e:	0c 4d       	mov	r13,	r12	
    85a0:	12 c3       	clrc			
    85a2:	0c 10       	rrc	r12		
    85a4:	08 4b       	mov	r11,	r8	
    85a6:	09 4c       	mov	r12,	r9	
    85a8:	88 4a 00 00 	mov	r10,	0(r8)	;0x0000(r8)
    85ac:	28 53       	incd	r8		
    85ae:	39 53       	add	#-1,	r9	;r3 As==11
    85b0:	fb 23       	jnz	$-8      	;abs 0x85a8
    85b2:	0c 5c       	rla	r12		
    85b4:	0c 5b       	add	r11,	r12	
    85b6:	1d f3       	and	#1,	r13	;r3 As==01
    85b8:	0d 99       	cmp	r9,	r13	
    85ba:	02 24       	jz	$+6      	;abs 0x85c0
    85bc:	cc 4e 00 00 	mov.b	r14,	0(r12)	;0x0000(r12)
    85c0:	38 41       	pop	r8		
    85c2:	39 41       	pop	r9		
    85c4:	3a 41       	pop	r10		
    85c6:	3b 41       	pop	r11		
    85c8:	30 41       	ret			

000085ca <printf>:
    85ca:	0d 41       	mov	r1,	r13	
    85cc:	2d 52       	add	#4,	r13	;r2 As==10
    85ce:	1e 41 02 00 	mov	2(r1),	r14	;0x0002(r1)
    85d2:	3f 40 c0 81 	mov	#-32320,r15	;#0x81c0
    85d6:	b0 12 f6 86 	call	#0x86f6	
    85da:	30 41       	ret			

000085dc <vprintf>:
    85dc:	0d 4e       	mov	r14,	r13	
    85de:	0e 4f       	mov	r15,	r14	
    85e0:	3f 40 c0 81 	mov	#-32320,r15	;#0x81c0
    85e4:	b0 12 f6 86 	call	#0x86f6	
    85e8:	30 41       	ret			

000085ea <print_field>:
    85ea:	0b 12       	push	r11		
    85ec:	0a 12       	push	r10		
    85ee:	09 12       	push	r9		
    85f0:	08 12       	push	r8		
    85f2:	07 12       	push	r7		
    85f4:	06 12       	push	r6		
    85f6:	05 12       	push	r5		
    85f8:	04 12       	push	r4		
    85fa:	21 83       	decd	r1		
    85fc:	0a 4f       	mov	r15,	r10	
    85fe:	08 4e       	mov	r14,	r8	
    8600:	07 4d       	mov	r13,	r7	
    8602:	0f 4c       	mov	r12,	r15	
    8604:	8f 10       	swpb	r15		
    8606:	8f 11       	sxt	r15		
    8608:	4d 4c       	mov.b	r12,	r13	
    860a:	4e 4c       	mov.b	r12,	r14	
    860c:	7e f0 10 00 	and.b	#16,	r14	;#0x0010
    8610:	10 24       	jz	$+34     	;abs 0x8632
    8612:	f1 40 30 00 00 00 	mov.b	#48,	0(r1)	;#0x0030, 0x0000(r1)
    8618:	7d f0 40 00 	and.b	#64,	r13	;#0x0040
    861c:	03 24       	jz	$+8      	;abs 0x8624
    861e:	7f 40 58 00 	mov.b	#88,	r15	;#0x0058
    8622:	02 3c       	jmp	$+6      	;abs 0x8628
    8624:	7f 40 78 00 	mov.b	#120,	r15	;#0x0078
    8628:	c1 4f 01 00 	mov.b	r15,	1(r1)	;0x0001(r1)
    862c:	06 41       	mov	r1,	r6	
    862e:	26 53       	incd	r6		
    8630:	08 3c       	jmp	$+18     	;abs 0x8642
    8632:	4f 9e       	cmp.b	r14,	r15	
    8634:	05 24       	jz	$+12     	;abs 0x8640
    8636:	c1 4f 00 00 	mov.b	r15,	0(r1)	;0x0000(r1)
    863a:	06 41       	mov	r1,	r6	
    863c:	16 53       	inc	r6		
    863e:	01 3c       	jmp	$+4      	;abs 0x8642
    8640:	06 41       	mov	r1,	r6	
    8642:	06 81       	sub	r1,	r6	
    8644:	6c b2       	bit.b	#4,	r12	;r2 As==10
    8646:	2b 20       	jnz	$+88     	;abs 0x869e
    8648:	0f 48       	mov	r8,	r15	
    864a:	3f 53       	add	#-1,	r15	;r3 As==11
    864c:	1f 53       	inc	r15		
    864e:	cf 93 00 00 	tst.b	0(r15)		;0x0000(r15)
    8652:	fc 23       	jnz	$-6      	;abs 0x864c
    8654:	05 4f       	mov	r15,	r5	
    8656:	05 88       	sub	r8,	r5	
    8658:	07 96       	cmp	r6,	r7	
    865a:	02 28       	jnc	$+6      	;abs 0x8660
    865c:	07 86       	sub	r6,	r7	
    865e:	01 3c       	jmp	$+4      	;abs 0x8662
    8660:	07 43       	clr	r7		
    8662:	7c f0 20 00 	and.b	#32,	r12	;#0x0020
    8666:	0e 24       	jz	$+30     	;abs 0x8684
    8668:	09 43       	clr	r9		
    866a:	06 3c       	jmp	$+14     	;abs 0x8678
    866c:	0f 41       	mov	r1,	r15	
    866e:	0f 59       	add	r9,	r15	
    8670:	6f 4f       	mov.b	@r15,	r15	
    8672:	8f 11       	sxt	r15		
    8674:	19 53       	inc	r9		
    8676:	8a 12       	call	r10		
    8678:	09 96       	cmp	r6,	r9	
    867a:	f8 3b       	jl	$-14     	;abs 0x866c
    867c:	0b 46       	mov	r6,	r11	
    867e:	74 40 30 00 	mov.b	#48,	r4	;#0x0030
    8682:	0a 3c       	jmp	$+22     	;abs 0x8698
    8684:	74 40 20 00 	mov.b	#32,	r4	;#0x0020
    8688:	09 43       	clr	r9		
    868a:	0b 49       	mov	r9,	r11	
    868c:	05 3c       	jmp	$+12     	;abs 0x8698
    868e:	4f 44       	mov.b	r4,	r15	
    8690:	8f 11       	sxt	r15		
    8692:	8a 12       	call	r10		
    8694:	1b 53       	inc	r11		
    8696:	15 53       	inc	r5		
    8698:	05 97       	cmp	r7,	r5	
    869a:	f9 2b       	jnc	$-12     	;abs 0x868e
    869c:	02 3c       	jmp	$+6      	;abs 0x86a2
    869e:	09 43       	clr	r9		
    86a0:	0b 49       	mov	r9,	r11	
    86a2:	09 51       	add	r1,	r9	
    86a4:	05 3c       	jmp	$+12     	;abs 0x86b0
    86a6:	1b 53       	inc	r11		
    86a8:	6f 49       	mov.b	@r9,	r15	
    86aa:	8f 11       	sxt	r15		
    86ac:	8a 12       	call	r10		
    86ae:	19 53       	inc	r9		
    86b0:	0f 49       	mov	r9,	r15	
    86b2:	0f 81       	sub	r1,	r15	
    86b4:	0f 96       	cmp	r6,	r15	
    86b6:	f7 3b       	jl	$-16     	;abs 0x86a6
    86b8:	05 3c       	jmp	$+12     	;abs 0x86c4
    86ba:	6f 48       	mov.b	@r8,	r15	
    86bc:	8f 11       	sxt	r15		
    86be:	8a 12       	call	r10		
    86c0:	18 53       	inc	r8		
    86c2:	1b 53       	inc	r11		
    86c4:	c8 93 00 00 	tst.b	0(r8)		;0x0000(r8)
    86c8:	f8 23       	jnz	$-14     	;abs 0x86ba
    86ca:	04 3c       	jmp	$+10     	;abs 0x86d4
    86cc:	3f 40 20 00 	mov	#32,	r15	;#0x0020
    86d0:	8a 12       	call	r10		
    86d2:	1b 53       	inc	r11		
    86d4:	0b 97       	cmp	r7,	r11	
    86d6:	fa 2b       	jnc	$-10     	;abs 0x86cc
    86d8:	0f 4b       	mov	r11,	r15	
    86da:	21 53       	incd	r1		
    86dc:	34 41       	pop	r4		
    86de:	35 41       	pop	r5		
    86e0:	36 41       	pop	r6		
    86e2:	37 41       	pop	r7		
    86e4:	38 41       	pop	r8		
    86e6:	39 41       	pop	r9		
    86e8:	3a 41       	pop	r10		
    86ea:	3b 41       	pop	r11		
    86ec:	30 41       	ret			
    86ee:	28 6e       	addc	@r14,	r8	
    86f0:	75 6c       	addc.b	@r12+,	r5	
    86f2:	6c 29       	jnc	$+730    	;abs 0x89cc
	...

000086f6 <vuprintf>:
    86f6:	0b 12       	push	r11		
    86f8:	0a 12       	push	r10		
    86fa:	09 12       	push	r9		
    86fc:	08 12       	push	r8		
    86fe:	07 12       	push	r7		
    8700:	06 12       	push	r6		
    8702:	05 12       	push	r5		
    8704:	04 12       	push	r4		
    8706:	31 50 de ff 	add	#-34,	r1	;#0xffde
    870a:	81 4f 18 00 	mov	r15,	24(r1)	;0x0018(r1)
    870e:	81 4e 1a 00 	mov	r14,	26(r1)	;0x001a(r1)
    8712:	81 4d 0e 00 	mov	r13,	14(r1)	;0x000e(r1)
    8716:	81 43 10 00 	mov	#0,	16(r1)	;r3 As==00, 0x0010(r1)
    871a:	1a 41 10 00 	mov	16(r1),	r10	;0x0010(r1)
    871e:	81 4a 12 00 	mov	r10,	18(r1)	;0x0012(r1)
    8722:	30 40 38 8a 	br	#0x8a38	
    8726:	0a 93       	tst	r10		
    8728:	0b 20       	jnz	$+24     	;abs 0x8740
    872a:	7e 90 25 00 	cmp.b	#37,	r14	;#0x0025
    872e:	02 24       	jz	$+6      	;abs 0x8734
    8730:	30 40 22 8a 	br	#0x8a22	
    8734:	81 4a 00 00 	mov	r10,	0(r1)	;0x0000(r1)
    8738:	81 4a 10 00 	mov	r10,	16(r1)	;0x0010(r1)
    873c:	30 40 32 8a 	br	#0x8a32	
    8740:	7e 90 63 00 	cmp.b	#99,	r14	;#0x0063
    8744:	a3 24       	jz	$+328    	;abs 0x888c
    8746:	7f 40 63 00 	mov.b	#99,	r15	;#0x0063
    874a:	4f 9e       	cmp.b	r14,	r15	
    874c:	2a 38       	jl	$+86     	;abs 0x87a2
    874e:	7e 90 30 00 	cmp.b	#48,	r14	;#0x0030
    8752:	78 24       	jz	$+242    	;abs 0x8844
    8754:	7f 50 cd ff 	add.b	#-51,	r15	;#0xffcd
    8758:	4f 9e       	cmp.b	r14,	r15	
    875a:	19 38       	jl	$+52     	;abs 0x878e
    875c:	7e 90 2a 00 	cmp.b	#42,	r14	;#0x002a
    8760:	5b 24       	jz	$+184    	;abs 0x8818
    8762:	7f 50 fa ff 	add.b	#-6,	r15	;#0xfffa
    8766:	4f 9e       	cmp.b	r14,	r15	
    8768:	09 38       	jl	$+20     	;abs 0x877c
    876a:	7e 90 20 00 	cmp.b	#32,	r14	;#0x0020
    876e:	49 24       	jz	$+148    	;abs 0x8802
    8770:	7e 90 23 00 	cmp.b	#35,	r14	;#0x0023
    8774:	02 24       	jz	$+6      	;abs 0x877a
    8776:	30 40 22 8a 	br	#0x8a22	
    877a:	32 3c       	jmp	$+102    	;abs 0x87e0
    877c:	7e 90 2b 00 	cmp.b	#43,	r14	;#0x002b
    8780:	3b 24       	jz	$+120    	;abs 0x87f8
    8782:	7e 90 2d 00 	cmp.b	#45,	r14	;#0x002d
    8786:	02 24       	jz	$+6      	;abs 0x878c
    8788:	30 40 22 8a 	br	#0x8a22	
    878c:	31 3c       	jmp	$+100    	;abs 0x87f0
    878e:	7f 40 39 00 	mov.b	#57,	r15	;#0x0039
    8792:	4f 9e       	cmp.b	r14,	r15	
    8794:	6c 34       	jge	$+218    	;abs 0x886e
    8796:	7e 90 58 00 	cmp.b	#88,	r14	;#0x0058
    879a:	02 24       	jz	$+6      	;abs 0x87a0
    879c:	30 40 22 8a 	br	#0x8a22	
    87a0:	a9 3c       	jmp	$+340    	;abs 0x88f4
    87a2:	7e 90 70 00 	cmp.b	#112,	r14	;#0x0070
    87a6:	8f 24       	jz	$+288    	;abs 0x88c6
    87a8:	7f 40 70 00 	mov.b	#112,	r15	;#0x0070
    87ac:	4f 9e       	cmp.b	r14,	r15	
    87ae:	0c 38       	jl	$+26     	;abs 0x87c8
    87b0:	7e 90 69 00 	cmp.b	#105,	r14	;#0x0069
    87b4:	a3 24       	jz	$+328    	;abs 0x88fc
    87b6:	7e 90 6c 00 	cmp.b	#108,	r14	;#0x006c
    87ba:	16 24       	jz	$+46     	;abs 0x87e8
    87bc:	7e 90 64 00 	cmp.b	#100,	r14	;#0x0064
    87c0:	02 24       	jz	$+6      	;abs 0x87c6
    87c2:	30 40 22 8a 	br	#0x8a22	
    87c6:	9a 3c       	jmp	$+310    	;abs 0x88fc
    87c8:	7e 90 75 00 	cmp.b	#117,	r14	;#0x0075
    87cc:	99 24       	jz	$+308    	;abs 0x8900
    87ce:	7e 90 78 00 	cmp.b	#120,	r14	;#0x0078
    87d2:	99 24       	jz	$+308    	;abs 0x8906
    87d4:	7e 90 73 00 	cmp.b	#115,	r14	;#0x0073
    87d8:	02 24       	jz	$+6      	;abs 0x87de
    87da:	30 40 22 8a 	br	#0x8a22	
    87de:	5d 3c       	jmp	$+188    	;abs 0x889a
    87e0:	f1 d2 00 00 	bis.b	#8,	0(r1)	;r2 As==11, 0x0000(r1)
    87e4:	30 40 32 8a 	br	#0x8a32	
    87e8:	d1 d3 00 00 	bis.b	#1,	0(r1)	;r3 As==01, 0x0000(r1)
    87ec:	30 40 32 8a 	br	#0x8a32	
    87f0:	e1 d2 00 00 	bis.b	#4,	0(r1)	;r2 As==10, 0x0000(r1)
    87f4:	30 40 32 8a 	br	#0x8a32	
    87f8:	f1 40 2b 00 01 00 	mov.b	#43,	1(r1)	;#0x002b, 0x0001(r1)
    87fe:	30 40 32 8a 	br	#0x8a32	
    8802:	f1 90 2b 00 01 00 	cmp.b	#43,	1(r1)	;#0x002b, 0x0001(r1)
    8808:	02 20       	jnz	$+6      	;abs 0x880e
    880a:	30 40 32 8a 	br	#0x8a32	
    880e:	f1 40 20 00 01 00 	mov.b	#32,	1(r1)	;#0x0020, 0x0001(r1)
    8814:	30 40 32 8a 	br	#0x8a32	
    8818:	1c 41 0e 00 	mov	14(r1),	r12	;0x000e(r1)
    881c:	2c 53       	incd	r12		
    881e:	1f 41 0e 00 	mov	14(r1),	r15	;0x000e(r1)
    8822:	2e 4f       	mov	@r15,	r14	
    8824:	0e 93       	tst	r14		
    8826:	03 38       	jl	$+8      	;abs 0x882e
    8828:	81 4e 10 00 	mov	r14,	16(r1)	;0x0010(r1)
    882c:	07 3c       	jmp	$+16     	;abs 0x883c
    882e:	e1 d2 00 00 	bis.b	#4,	0(r1)	;r2 As==10, 0x0000(r1)
    8832:	3e e3       	inv	r14		
    8834:	81 4e 10 00 	mov	r14,	16(r1)	;0x0010(r1)
    8838:	91 53 10 00 	inc	16(r1)		;0x0010(r1)
    883c:	81 4c 0e 00 	mov	r12,	14(r1)	;0x000e(r1)
    8840:	30 40 32 8a 	br	#0x8a32	
    8844:	81 93 10 00 	tst	16(r1)		;0x0010(r1)
    8848:	12 20       	jnz	$+38     	;abs 0x886e
    884a:	6b 41       	mov.b	@r1,	r11	
    884c:	6b f2       	and.b	#4,	r11	;r2 As==10
    884e:	5a 43       	mov.b	#1,	r10	;r3 As==01
    8850:	02 24       	jz	$+6      	;abs 0x8856
    8852:	5a 41 10 00 	mov.b	16(r1),	r10	;0x0010(r1)
    8856:	5a f3       	and.b	#1,	r10	;r3 As==01
    8858:	4a 5a       	rla.b	r10		
    885a:	4a 5a       	rla.b	r10		
    885c:	4a 5a       	rla.b	r10		
    885e:	4a 5a       	rla.b	r10		
    8860:	4a 5a       	rla.b	r10		
    8862:	6b 41       	mov.b	@r1,	r11	
    8864:	7b f0 df ff 	and.b	#-33,	r11	;#0xffdf
    8868:	4b da       	bis.b	r10,	r11	
    886a:	c1 4b 00 00 	mov.b	r11,	0(r1)	;0x0000(r1)
    886e:	1b 41 10 00 	mov	16(r1),	r11	;0x0010(r1)
    8872:	0b 5b       	rla	r11		
    8874:	0b 5b       	rla	r11		
    8876:	1b 51 10 00 	add	16(r1),	r11	;0x0010(r1)
    887a:	0b 5b       	rla	r11		
    887c:	8e 11       	sxt	r14		
    887e:	3e 50 d0 ff 	add	#-48,	r14	;#0xffd0
    8882:	81 4e 10 00 	mov	r14,	16(r1)	;0x0010(r1)
    8886:	81 5b 10 00 	add	r11,	16(r1)	;0x0010(r1)
    888a:	d3 3c       	jmp	$+424    	;abs 0x8a32
    888c:	1f 41 0e 00 	mov	14(r1),	r15	;0x000e(r1)
    8890:	6e 4f       	mov.b	@r15,	r14	
    8892:	2f 53       	incd	r15		
    8894:	81 4f 0e 00 	mov	r15,	14(r1)	;0x000e(r1)
    8898:	c4 3c       	jmp	$+394    	;abs 0x8a22
    889a:	1b 41 0e 00 	mov	14(r1),	r11	;0x000e(r1)
    889e:	2b 53       	incd	r11		
    88a0:	1f 41 0e 00 	mov	14(r1),	r15	;0x000e(r1)
    88a4:	2e 4f       	mov	@r15,	r14	
    88a6:	0e 93       	tst	r14		
    88a8:	02 20       	jnz	$+6      	;abs 0x88ae
    88aa:	3e 40 ee 86 	mov	#-30994,r14	;#0x86ee
    88ae:	2c 41       	mov	@r1,	r12	
    88b0:	1d 41 10 00 	mov	16(r1),	r13	;0x0010(r1)
    88b4:	1f 41 18 00 	mov	24(r1),	r15	;0x0018(r1)
    88b8:	b0 12 ea 85 	call	#0x85ea	
    88bc:	81 5f 12 00 	add	r15,	18(r1)	;0x0012(r1)
    88c0:	81 4b 0e 00 	mov	r11,	14(r1)	;0x000e(r1)
    88c4:	b4 3c       	jmp	$+362    	;abs 0x8a2e
    88c6:	1f 41 0e 00 	mov	14(r1),	r15	;0x000e(r1)
    88ca:	a1 4f 14 00 	mov	@r15,	20(r1)	;0x0014(r1)
    88ce:	1f 41 14 00 	mov	20(r1),	r15	;0x0014(r1)
    88d2:	8f 10       	swpb	r15		
    88d4:	8f 11       	sxt	r15		
    88d6:	8f 10       	swpb	r15		
    88d8:	8f 11       	sxt	r15		
    88da:	81 4f 16 00 	mov	r15,	22(r1)	;0x0016(r1)
    88de:	15 41 14 00 	mov	20(r1),	r5	;0x0014(r1)
    88e2:	16 41 16 00 	mov	22(r1),	r6	;0x0016(r1)
    88e6:	35 f3       	and	#-1,	r5	;r3 As==11
    88e8:	06 f3       	and	#0,	r6	;r3 As==00
    88ea:	f1 d2 00 00 	bis.b	#8,	0(r1)	;r2 As==11, 0x0000(r1)
    88ee:	a1 53 0e 00 	incd	14(r1)		;0x000e(r1)
    88f2:	30 3c       	jmp	$+98     	;abs 0x8954
    88f4:	f1 d0 40 00 00 00 	bis.b	#64,	0(r1)	;#0x0040, 0x0000(r1)
    88fa:	05 3c       	jmp	$+12     	;abs 0x8906
    88fc:	e1 d3 00 00 	bis.b	#2,	0(r1)	;r3 As==10, 0x0000(r1)
    8900:	34 40 0a 00 	mov	#10,	r4	;#0x000a
    8904:	02 3c       	jmp	$+6      	;abs 0x890a
    8906:	34 40 10 00 	mov	#16,	r4	;#0x0010
    890a:	6b 41       	mov.b	@r1,	r11	
    890c:	4c 4b       	mov.b	r11,	r12	
    890e:	5c f3       	and.b	#1,	r12	;r3 As==01
    8910:	09 24       	jz	$+20     	;abs 0x8924
    8912:	1f 41 0e 00 	mov	14(r1),	r15	;0x000e(r1)
    8916:	25 4f       	mov	@r15,	r5	
    8918:	16 4f 02 00 	mov	2(r15),	r6	;0x0002(r15)
    891c:	2f 52       	add	#4,	r15	;r2 As==10
    891e:	81 4f 0e 00 	mov	r15,	14(r1)	;0x000e(r1)
    8922:	15 3c       	jmp	$+44     	;abs 0x894e
    8924:	6b f3       	and.b	#2,	r11	;r3 As==10
    8926:	1a 41 0e 00 	mov	14(r1),	r10	;0x000e(r1)
    892a:	2a 53       	incd	r10		
    892c:	4b 9c       	cmp.b	r12,	r11	
    892e:	09 24       	jz	$+20     	;abs 0x8942
    8930:	1f 41 0e 00 	mov	14(r1),	r15	;0x000e(r1)
    8934:	25 4f       	mov	@r15,	r5	
    8936:	06 45       	mov	r5,	r6	
    8938:	86 10       	swpb	r6		
    893a:	86 11       	sxt	r6		
    893c:	86 10       	swpb	r6		
    893e:	86 11       	sxt	r6		
    8940:	04 3c       	jmp	$+10     	;abs 0x894a
    8942:	1f 41 0e 00 	mov	14(r1),	r15	;0x000e(r1)
    8946:	25 4f       	mov	@r15,	r5	
    8948:	06 43       	clr	r6		
    894a:	81 4a 0e 00 	mov	r10,	14(r1)	;0x000e(r1)
    894e:	34 90 10 00 	cmp	#16,	r4	;#0x0010
    8952:	0c 20       	jnz	$+26     	;abs 0x896c
    8954:	05 93       	tst	r5		
    8956:	02 20       	jnz	$+6      	;abs 0x895c
    8958:	06 93       	tst	r6		
    895a:	06 24       	jz	$+14     	;abs 0x8968
    895c:	f1 b2 00 00 	bit.b	#8,	0(r1)	;r2 As==11, 0x0000(r1)
    8960:	03 24       	jz	$+8      	;abs 0x8968
    8962:	f1 d0 10 00 00 00 	bis.b	#16,	0(r1)	;#0x0010, 0x0000(r1)
    8968:	34 40 10 00 	mov	#16,	r4	;#0x0010
    896c:	e1 b3 00 00 	bit.b	#2,	0(r1)	;r3 As==10, 0x0000(r1)
    8970:	09 24       	jz	$+20     	;abs 0x8984
    8972:	06 93       	tst	r6		
    8974:	07 34       	jge	$+16     	;abs 0x8984
    8976:	f1 40 2d 00 01 00 	mov.b	#45,	1(r1)	;#0x002d, 0x0001(r1)
    897c:	35 e3       	inv	r5		
    897e:	36 e3       	inv	r6		
    8980:	15 53       	inc	r5		
    8982:	06 63       	adc	r6		
    8984:	c1 43 0d 00 	mov.b	#0,	13(r1)	;r3 As==00, 0x000d(r1)
    8988:	6f 41       	mov.b	@r1,	r15	
    898a:	7f f0 40 00 	and.b	#64,	r15	;#0x0040
    898e:	c1 4f 1e 00 	mov.b	r15,	30(r1)	;0x001e(r1)
    8992:	07 41       	mov	r1,	r7	
    8994:	37 50 0b 00 	add	#11,	r7	;#0x000b
    8998:	0f 44       	mov	r4,	r15	
    899a:	8f 10       	swpb	r15		
    899c:	8f 11       	sxt	r15		
    899e:	8f 10       	swpb	r15		
    89a0:	8f 11       	sxt	r15		
    89a2:	81 4f 1c 00 	mov	r15,	28(r1)	;0x001c(r1)
    89a6:	0f 47       	mov	r7,	r15	
    89a8:	1f 53       	inc	r15		
    89aa:	81 4f 20 00 	mov	r15,	32(r1)	;0x0020(r1)
    89ae:	0c 45       	mov	r5,	r12	
    89b0:	0d 46       	mov	r6,	r13	
    89b2:	0a 44       	mov	r4,	r10	
    89b4:	1b 41 1c 00 	mov	28(r1),	r11	;0x001c(r1)
    89b8:	b0 12 8e 8b 	call	#0x8b8e	
    89bc:	3f 40 09 00 	mov	#9,	r15	;#0x0009
    89c0:	0f 9e       	cmp	r14,	r15	
    89c2:	05 38       	jl	$+12     	;abs 0x89ce
    89c4:	7e 50 30 00 	add.b	#48,	r14	;#0x0030
    89c8:	c7 4e 01 00 	mov.b	r14,	1(r7)	;0x0001(r7)
    89cc:	0b 3c       	jmp	$+24     	;abs 0x89e4
    89ce:	c1 93 1e 00 	tst.b	30(r1)		;0x001e(r1)
    89d2:	03 24       	jz	$+8      	;abs 0x89da
    89d4:	7f 40 37 00 	mov.b	#55,	r15	;#0x0037
    89d8:	02 3c       	jmp	$+6      	;abs 0x89de
    89da:	7f 40 57 00 	mov.b	#87,	r15	;#0x0057
    89de:	4f 5e       	add.b	r14,	r15	
    89e0:	c7 4f 01 00 	mov.b	r15,	1(r7)	;0x0001(r7)
    89e4:	0c 45       	mov	r5,	r12	
    89e6:	0d 46       	mov	r6,	r13	
    89e8:	0a 44       	mov	r4,	r10	
    89ea:	1b 41 1c 00 	mov	28(r1),	r11	;0x001c(r1)
    89ee:	b0 12 8e 8b 	call	#0x8b8e	
    89f2:	05 4c       	mov	r12,	r5	
    89f4:	06 4d       	mov	r13,	r6	
    89f6:	37 53       	add	#-1,	r7	;r3 As==11
    89f8:	0c 93       	tst	r12		
    89fa:	d5 23       	jnz	$-84     	;abs 0x89a6
    89fc:	06 93       	tst	r6		
    89fe:	d3 23       	jnz	$-88     	;abs 0x89a6
    8a00:	34 90 0a 00 	cmp	#10,	r4	;#0x000a
    8a04:	02 24       	jz	$+6      	;abs 0x8a0a
    8a06:	c1 43 01 00 	mov.b	#0,	1(r1)	;r3 As==00, 0x0001(r1)
    8a0a:	2c 41       	mov	@r1,	r12	
    8a0c:	1d 41 10 00 	mov	16(r1),	r13	;0x0010(r1)
    8a10:	1e 41 20 00 	mov	32(r1),	r14	;0x0020(r1)
    8a14:	1f 41 18 00 	mov	24(r1),	r15	;0x0018(r1)
    8a18:	b0 12 ea 85 	call	#0x85ea	
    8a1c:	81 5f 12 00 	add	r15,	18(r1)	;0x0012(r1)
    8a20:	06 3c       	jmp	$+14     	;abs 0x8a2e
    8a22:	8e 11       	sxt	r14		
    8a24:	0f 4e       	mov	r14,	r15	
    8a26:	91 12 1a 00 	call	26(r1)		;0x001a(r1)
    8a2a:	91 53 12 00 	inc	18(r1)		;0x0012(r1)
    8a2e:	0a 43       	clr	r10		
    8a30:	01 3c       	jmp	$+4      	;abs 0x8a34
    8a32:	1a 43       	mov	#1,	r10	;r3 As==01
    8a34:	91 53 1a 00 	inc	26(r1)		;0x001a(r1)
    8a38:	1f 41 1a 00 	mov	26(r1),	r15	;0x001a(r1)
    8a3c:	6e 4f       	mov.b	@r15,	r14	
    8a3e:	4e 93       	tst.b	r14		
    8a40:	02 24       	jz	$+6      	;abs 0x8a46
    8a42:	30 40 26 87 	br	#0x8726	
    8a46:	1f 41 12 00 	mov	18(r1),	r15	;0x0012(r1)
    8a4a:	31 50 22 00 	add	#34,	r1	;#0x0022
    8a4e:	34 41       	pop	r4		
    8a50:	35 41       	pop	r5		
    8a52:	36 41       	pop	r6		
    8a54:	37 41       	pop	r7		
    8a56:	38 41       	pop	r8		
    8a58:	39 41       	pop	r9		
    8a5a:	3a 41       	pop	r10		
    8a5c:	3b 41       	pop	r11		
    8a5e:	30 41       	ret			

00008a60 <puts>:
    8a60:	0b 12       	push	r11		
    8a62:	0b 4f       	mov	r15,	r11	
    8a64:	6f 4b       	mov.b	@r11,	r15	
    8a66:	4f 93       	tst.b	r15		
    8a68:	06 24       	jz	$+14     	;abs 0x8a76
    8a6a:	1b 53       	inc	r11		
    8a6c:	8f 11       	sxt	r15		
    8a6e:	b0 12 c0 81 	call	#0x81c0	
    8a72:	0f 93       	tst	r15		
    8a74:	f7 37       	jge	$-16     	;abs 0x8a64
    8a76:	cb 93 00 00 	tst.b	0(r11)		;0x0000(r11)
    8a7a:	05 20       	jnz	$+12     	;abs 0x8a86
    8a7c:	3f 40 0a 00 	mov	#10,	r15	;#0x000a
    8a80:	b0 12 c0 81 	call	#0x81c0	
    8a84:	01 3c       	jmp	$+4      	;abs 0x8a88
    8a86:	3f 43       	mov	#-1,	r15	;r3 As==11
    8a88:	3b 41       	pop	r11		
    8a8a:	30 41       	ret			

00008a8c <__umulsidi3>:
    8a8c:	06 43       	clr	r6		
    8a8e:	07 43       	clr	r7		
    8a90:	0a 43       	clr	r10		
    8a92:	0b 43       	clr	r11		
    8a94:	30 40 06 8b 	br	#0x8b06	

00008a98 <__udivmodqi4>:
    8a98:	4e ee       	xor.b	r14,	r14	
    8a9a:	7b 40 09 00 	mov.b	#9,	r11	;#0x0009
    8a9e:	05 3c       	jmp	$+12     	;abs 0x8aaa
    8aa0:	0d 10       	rrc	r13		
    8aa2:	4e 6e       	rlc.b	r14		
    8aa4:	4e 9a       	cmp.b	r10,	r14	
    8aa6:	01 28       	jnc	$+4      	;abs 0x8aaa
    8aa8:	4e 8a       	sub.b	r10,	r14	
    8aaa:	4c 6c       	rlc.b	r12		
    8aac:	0d 6d       	rlc	r13		
    8aae:	5b 83       	dec.b	r11		
    8ab0:	f7 23       	jnz	$-16     	;abs 0x8aa0
    8ab2:	30 41       	ret			

00008ab4 <__udivmodhi4>:
    8ab4:	0e ee       	xor	r14,	r14	
    8ab6:	3b 40 11 00 	mov	#17,	r11	;#0x0011
    8aba:	05 3c       	jmp	$+12     	;abs 0x8ac6
    8abc:	0d 10       	rrc	r13		
    8abe:	0e 6e       	rlc	r14		
    8ac0:	0e 9a       	cmp	r10,	r14	
    8ac2:	01 28       	jnc	$+4      	;abs 0x8ac6
    8ac4:	0e 8a       	sub	r10,	r14	
    8ac6:	0c 6c       	rlc	r12		
    8ac8:	0d 6d       	rlc	r13		
    8aca:	1b 83       	dec	r11		
    8acc:	f7 23       	jnz	$-16     	;abs 0x8abc
    8ace:	30 41       	ret			

00008ad0 <__divmodhi4>:
    8ad0:	0d 43       	clr	r13		
    8ad2:	3c b0 00 80 	bit	#-32768,r12	;#0x8000
    8ad6:	03 28       	jnc	$+8      	;abs 0x8ade
    8ad8:	3c e3       	inv	r12		
    8ada:	1c 53       	inc	r12		
    8adc:	2d d2       	bis	#4,	r13	;r2 As==10
    8ade:	3a b0 00 80 	bit	#-32768,r10	;#0x8000
    8ae2:	03 28       	jnc	$+8      	;abs 0x8aea
    8ae4:	3a e3       	inv	r10		
    8ae6:	1a 53       	inc	r10		
    8ae8:	3d d2       	bis	#8,	r13	;r2 As==11
    8aea:	b0 12 b4 8a 	call	#0x8ab4	
    8aee:	0d 10       	rrc	r13		
    8af0:	2d b2       	bit	#4,	r13	;r2 As==10
    8af2:	04 28       	jnc	$+10     	;abs 0x8afc
    8af4:	3e e3       	inv	r14		
    8af6:	1e 53       	inc	r14		
    8af8:	3c e3       	inv	r12		
    8afa:	1c 53       	inc	r12		
    8afc:	3d b2       	bit	#8,	r13	;r2 As==11
    8afe:	02 28       	jnc	$+6      	;abs 0x8b04
    8b00:	3c e3       	inv	r12		
    8b02:	1c 53       	inc	r12		
    8b04:	30 41       	ret			

00008b06 <__muldi3>:
    8b06:	0f 43       	clr	r15		
    8b08:	0e 43       	clr	r14		
    8b0a:	0d 43       	clr	r13		
    8b0c:	0c 43       	clr	r12		
    8b0e:	82 48 30 01 	mov	r8,	&0x0130	
    8b12:	82 44 38 01 	mov	r4,	&0x0138	
    8b16:	1c 42 3a 01 	mov	&0x013a,r12	
    8b1a:	92 42 3c 01 3a 01 	mov	&0x013c,&0x013a	
    8b20:	92 42 3e 01 3c 01 	mov	&0x013e,&0x013c	
    8b26:	82 48 34 01 	mov	r8,	&0x0134	
    8b2a:	82 45 38 01 	mov	r5,	&0x0138	
    8b2e:	82 49 34 01 	mov	r9,	&0x0134	
    8b32:	82 44 38 01 	mov	r4,	&0x0138	
    8b36:	1d 42 3a 01 	mov	&0x013a,r13	
    8b3a:	92 42 3c 01 3a 01 	mov	&0x013c,&0x013a	
    8b40:	92 42 3e 01 3c 01 	mov	&0x013e,&0x013c	
    8b46:	82 45 38 01 	mov	r5,	&0x0138	
    8b4a:	82 48 34 01 	mov	r8,	&0x0134	
    8b4e:	82 46 38 01 	mov	r6,	&0x0138	
    8b52:	82 4a 34 01 	mov	r10,	&0x0134	
    8b56:	82 44 38 01 	mov	r4,	&0x0138	
    8b5a:	1e 42 3a 01 	mov	&0x013a,r14	
    8b5e:	92 42 3c 01 3a 01 	mov	&0x013c,&0x013a	
    8b64:	82 45 38 01 	mov	r5,	&0x0138	
    8b68:	82 48 34 01 	mov	r8,	&0x0134	
    8b6c:	82 47 38 01 	mov	r7,	&0x0138	
    8b70:	82 49 34 01 	mov	r9,	&0x0134	
    8b74:	82 46 38 01 	mov	r6,	&0x0138	
    8b78:	82 4b 34 01 	mov	r11,	&0x0134	
    8b7c:	82 44 38 01 	mov	r4,	&0x0138	
    8b80:	1f 42 3a 01 	mov	&0x013a,r15	
    8b84:	0c 4c       	mov	r12,	r12	
    8b86:	0d 4d       	mov	r13,	r13	
    8b88:	0e 4e       	mov	r14,	r14	
    8b8a:	0f 4f       	mov	r15,	r15	
    8b8c:	30 41       	ret			

00008b8e <__udivmodsi4>:
    8b8e:	0f ef       	xor	r15,	r15	
    8b90:	0e ee       	xor	r14,	r14	
    8b92:	39 40 21 00 	mov	#33,	r9	;#0x0021
    8b96:	0a 3c       	jmp	$+22     	;abs 0x8bac
    8b98:	08 10       	rrc	r8		
    8b9a:	0e 6e       	rlc	r14		
    8b9c:	0f 6f       	rlc	r15		
    8b9e:	0f 9b       	cmp	r11,	r15	
    8ba0:	05 28       	jnc	$+12     	;abs 0x8bac
    8ba2:	02 20       	jnz	$+6      	;abs 0x8ba8
    8ba4:	0e 9a       	cmp	r10,	r14	
    8ba6:	02 28       	jnc	$+6      	;abs 0x8bac
    8ba8:	0e 8a       	sub	r10,	r14	
    8baa:	0f 7b       	subc	r11,	r15	
    8bac:	0c 6c       	rlc	r12		
    8bae:	0d 6d       	rlc	r13		
    8bb0:	08 68       	rlc	r8		
    8bb2:	19 83       	dec	r9		
    8bb4:	f1 23       	jnz	$-28     	;abs 0x8b98
    8bb6:	30 41       	ret			

00008bb8 <_unexpected_>:
    8bb8:	00 13       	reti			

Disassembly of section .vectors:

0000ffe0 <__ivtbl_16>:
    ffe0:	f8 44 f4 82 62 81 da 80 06 82 74 80 56 80 f8 44     .D..b.....t.V..D
    fff0:	f6 83 9a 83 f8 44 f8 44 b6 80 98 80 f8 44 00 40     .....D.D.....D.@
